
NatsukyCode.elf:     file format elf32-avr

Sections:
Idx Name          Size      VMA       LMA       File off  Algn
  0 .data         00000218  00800100  000039c4  00003a58  2**0
                  CONTENTS, ALLOC, LOAD, DATA
  1 .text         000039c4  00000000  00000000  00000094  2**1
                  CONTENTS, ALLOC, LOAD, READONLY, CODE
  2 .bss          00000133  00800318  00800318  00003c70  2**0
                  ALLOC
  3 .comment      0000005c  00000000  00000000  00003c70  2**0
                  CONTENTS, READONLY
  4 .note.gnu.avr.deviceinfo 00000040  00000000  00000000  00003ccc  2**2
                  CONTENTS, READONLY
  5 .debug_aranges 00000208  00000000  00000000  00003d0c  2**0
                  CONTENTS, READONLY, DEBUGGING
  6 .debug_info   000051e1  00000000  00000000  00003f14  2**0
                  CONTENTS, READONLY, DEBUGGING
  7 .debug_abbrev 00000caa  00000000  00000000  000090f5  2**0
                  CONTENTS, READONLY, DEBUGGING
  8 .debug_line   00000fae  00000000  00000000  00009d9f  2**0
                  CONTENTS, READONLY, DEBUGGING
  9 .debug_frame  000007e4  00000000  00000000  0000ad50  2**2
                  CONTENTS, READONLY, DEBUGGING
 10 .debug_str    000011b0  00000000  00000000  0000b534  2**0
                  CONTENTS, READONLY, DEBUGGING
 11 .debug_loc    00003b23  00000000  00000000  0000c6e4  2**0
                  CONTENTS, READONLY, DEBUGGING
 12 .debug_ranges 00000270  00000000  00000000  00010207  2**0
                  CONTENTS, READONLY, DEBUGGING

Disassembly of section .text:

00000000 <__vectors>:
       0:	0c 94 ec 00 	jmp	0x1d8	; 0x1d8 <__dtors_end>
       4:	0c 94 14 01 	jmp	0x228	; 0x228 <__bad_interrupt>
       8:	0c 94 14 01 	jmp	0x228	; 0x228 <__bad_interrupt>
       c:	0c 94 14 01 	jmp	0x228	; 0x228 <__bad_interrupt>
      10:	0c 94 14 01 	jmp	0x228	; 0x228 <__bad_interrupt>
      14:	0c 94 14 01 	jmp	0x228	; 0x228 <__bad_interrupt>
      18:	0c 94 14 01 	jmp	0x228	; 0x228 <__bad_interrupt>
      1c:	0c 94 14 01 	jmp	0x228	; 0x228 <__bad_interrupt>
      20:	0c 94 14 01 	jmp	0x228	; 0x228 <__bad_interrupt>
      24:	0c 94 ba 08 	jmp	0x1174	; 0x1174 <__vector_9>
      28:	0c 94 14 01 	jmp	0x228	; 0x228 <__bad_interrupt>
      2c:	0c 94 14 01 	jmp	0x228	; 0x228 <__bad_interrupt>
      30:	0c 94 14 01 	jmp	0x228	; 0x228 <__bad_interrupt>
      34:	0c 94 14 01 	jmp	0x228	; 0x228 <__bad_interrupt>
      38:	0c 94 14 01 	jmp	0x228	; 0x228 <__bad_interrupt>
      3c:	0c 94 14 01 	jmp	0x228	; 0x228 <__bad_interrupt>
      40:	0c 94 14 01 	jmp	0x228	; 0x228 <__bad_interrupt>
      44:	0c 94 14 01 	jmp	0x228	; 0x228 <__bad_interrupt>
      48:	0c 94 14 01 	jmp	0x228	; 0x228 <__bad_interrupt>
      4c:	0c 94 14 01 	jmp	0x228	; 0x228 <__bad_interrupt>
      50:	0c 94 85 0f 	jmp	0x1f0a	; 0x1f0a <__vector_20>
      54:	0c 94 14 01 	jmp	0x228	; 0x228 <__bad_interrupt>
      58:	0c 94 14 01 	jmp	0x228	; 0x228 <__bad_interrupt>
      5c:	0c 94 14 01 	jmp	0x228	; 0x228 <__bad_interrupt>
      60:	0c 94 14 01 	jmp	0x228	; 0x228 <__bad_interrupt>
      64:	0c 94 14 01 	jmp	0x228	; 0x228 <__bad_interrupt>
      68:	0c 94 14 01 	jmp	0x228	; 0x228 <__bad_interrupt>
      6c:	0c 94 14 01 	jmp	0x228	; 0x228 <__bad_interrupt>
      70:	0c 94 14 01 	jmp	0x228	; 0x228 <__bad_interrupt>
      74:	0c 94 14 01 	jmp	0x228	; 0x228 <__bad_interrupt>
      78:	0c 94 14 01 	jmp	0x228	; 0x228 <__bad_interrupt>
      7c:	0c 94 14 01 	jmp	0x228	; 0x228 <__bad_interrupt>
      80:	0c 94 14 01 	jmp	0x228	; 0x228 <__bad_interrupt>
      84:	0c 94 14 01 	jmp	0x228	; 0x228 <__bad_interrupt>
      88:	0c 94 14 01 	jmp	0x228	; 0x228 <__bad_interrupt>
      8c:	0c 94 0a 0b 	jmp	0x1614	; 0x1614 <__vector_35>
      90:	0c 94 14 01 	jmp	0x228	; 0x228 <__bad_interrupt>
      94:	0c 94 14 01 	jmp	0x228	; 0x228 <__bad_interrupt>
      98:	0c 94 14 01 	jmp	0x228	; 0x228 <__bad_interrupt>
      9c:	0c 94 14 01 	jmp	0x228	; 0x228 <__bad_interrupt>
      a0:	0c 94 14 01 	jmp	0x228	; 0x228 <__bad_interrupt>
      a4:	0c 94 14 01 	jmp	0x228	; 0x228 <__bad_interrupt>
      a8:	0c 94 14 01 	jmp	0x228	; 0x228 <__bad_interrupt>
      ac:	a4 0f       	add	r26, r20
      ae:	a7 0f       	add	r26, r23
      b0:	f6 0f       	add	r31, r22
      b2:	2e 10       	cpse	r2, r14
      b4:	d7 10       	cpse	r13, r7
      b6:	d7 10       	cpse	r13, r7
      b8:	d7 10       	cpse	r13, r7
      ba:	d7 10       	cpse	r13, r7
      bc:	d7 10       	cpse	r13, r7
      be:	d7 10       	cpse	r13, r7
      c0:	d7 10       	cpse	r13, r7
      c2:	d7 10       	cpse	r13, r7
      c4:	d7 10       	cpse	r13, r7
      c6:	d7 10       	cpse	r13, r7
      c8:	d7 10       	cpse	r13, r7
      ca:	d7 10       	cpse	r13, r7
      cc:	50 10       	cpse	r5, r0
      ce:	9b 10       	cpse	r9, r11
      d0:	c4 10       	cpse	r12, r4

000000d2 <__trampolines_end>:
      d2:	6e 61       	ori	r22, 0x1E	; 30
      d4:	6e 00       	.word	0x006e	; ????

000000d6 <__c.2177>:
      d6:	69 6e 66 00 00 40 7a 10 f3 5a 00 a0 72 4e 18 09     inf..@z..Z..rN..
      e6:	00 10 a5 d4 e8 00 00 e8 76 48 17 00 00 e4 0b 54     ........vH.....T
      f6:	02 00 00 ca 9a 3b 00 00 00 e1 f5 05 00 00 80 96     .....;..........
     106:	98 00 00 00 40 42 0f 00 00 00 a0 86 01 00 00 00     ....@B..........
     116:	10 27 00 00 00 00 e8 03 00 00 00 00 64 00 00 00     .'..........d...
     126:	00 00 0a 00 00 00 00 00 01 00 00 00 00 00 2c 76     ..............,v
     136:	d8 88 dc 67 4f 08 23 df c1 df ae 59 e1 b1 b7 96     ...gO.#....Y....
     146:	e5 e3 e4 53 c6 3a e6 51 99 76 96 e8 e6 c2 84 26     ...S.:.Q.v.....&
     156:	eb 89 8c 9b 62 ed 40 7c 6f fc ef bc 9c 9f 40 f2     ....b.@|o.....@.
     166:	ba a5 6f a5 f4 90 05 5a 2a f7 5c 93 6b 6c f9 67     ..o....Z*.\.kl.g
     176:	6d c1 1b fc e0 e4 0d 47 fe f5 20 e6 b5 00 d0 ed     m......G.. .....
     186:	90 2e 03 00 94 35 77 05 00 80 84 1e 08 00 00 20     .....5w........ 
     196:	4e 0a 00 00 00 c8 0c 33 33 33 33 0f 98 6e 12 83     N......3333..n..
     1a6:	11 41 ef 8d 21 14 89 3b e6 55 16 cf fe e6 db 18     .A..!..;.U......
     1b6:	d1 84 4b 38 1b f7 7c 1d 90 1d a4 bb e4 24 20 32     ..K8..|......$ 2
     1c6:	84 72 5e 22 81 00 c9 f1 24 ec a1 e5 3d 27           .r^"....$...='

000001d4 <__ctors_start>:
     1d4:	05 11       	cpse	r16, r5

000001d6 <__ctors_end>:
     1d6:	0e 11       	cpse	r16, r14

000001d8 <__dtors_end>:
     1d8:	11 24       	eor	r1, r1
     1da:	1f be       	out	0x3f, r1	; 63
     1dc:	cf ef       	ldi	r28, 0xFF	; 255
     1de:	da e0       	ldi	r29, 0x0A	; 10
     1e0:	de bf       	out	0x3e, r29	; 62
     1e2:	cd bf       	out	0x3d, r28	; 61

000001e4 <__do_copy_data>:
     1e4:	13 e0       	ldi	r17, 0x03	; 3
     1e6:	a0 e0       	ldi	r26, 0x00	; 0
     1e8:	b1 e0       	ldi	r27, 0x01	; 1
     1ea:	e4 ec       	ldi	r30, 0xC4	; 196
     1ec:	f9 e3       	ldi	r31, 0x39	; 57
     1ee:	02 c0       	rjmp	.+4      	; 0x1f4 <__do_copy_data+0x10>
     1f0:	05 90       	lpm	r0, Z+
     1f2:	0d 92       	st	X+, r0
     1f4:	a8 31       	cpi	r26, 0x18	; 24
     1f6:	b1 07       	cpc	r27, r17
     1f8:	d9 f7       	brne	.-10     	; 0x1f0 <__do_copy_data+0xc>

000001fa <__do_clear_bss>:
     1fa:	24 e0       	ldi	r18, 0x04	; 4
     1fc:	a8 e1       	ldi	r26, 0x18	; 24
     1fe:	b3 e0       	ldi	r27, 0x03	; 3
     200:	01 c0       	rjmp	.+2      	; 0x204 <.do_clear_bss_start>

00000202 <.do_clear_bss_loop>:
     202:	1d 92       	st	X+, r1

00000204 <.do_clear_bss_start>:
     204:	ab 34       	cpi	r26, 0x4B	; 75
     206:	b2 07       	cpc	r27, r18
     208:	e1 f7       	brne	.-8      	; 0x202 <.do_clear_bss_loop>

0000020a <__do_global_ctors>:
     20a:	10 e0       	ldi	r17, 0x00	; 0
     20c:	cb ee       	ldi	r28, 0xEB	; 235
     20e:	d0 e0       	ldi	r29, 0x00	; 0
     210:	04 c0       	rjmp	.+8      	; 0x21a <__do_global_ctors+0x10>
     212:	21 97       	sbiw	r28, 0x01	; 1
     214:	fe 01       	movw	r30, r28
     216:	0e 94 20 19 	call	0x3240	; 0x3240 <__tablejump2__>
     21a:	ca 3e       	cpi	r28, 0xEA	; 234
     21c:	d1 07       	cpc	r29, r17
     21e:	c9 f7       	brne	.-14     	; 0x212 <__do_global_ctors+0x8>
     220:	0e 94 a6 0d 	call	0x1b4c	; 0x1b4c <main>
     224:	0c 94 d5 1c 	jmp	0x39aa	; 0x39aa <__do_global_dtors>

00000228 <__bad_interrupt>:
     228:	0c 94 00 00 	jmp	0	; 0x0 <__vectors>

0000022c <_ZN9IRSensorsC1Ev>:
#include "pinout32u4.h"
#include <stdlib.h>


// default constructor
IRSensors::IRSensors()
     22c:	fc 01       	movw	r30, r24
{
 _pins = 0;
     22e:	15 82       	std	Z+5, r1	; 0x05
     230:	14 82       	std	Z+4, r1	; 0x04
_numSensors = 0;
     232:	16 82       	std	Z+6, r1	; 0x06
_numSamples = 4;
     234:	84 e0       	ldi	r24, 0x04	; 4
     236:	87 83       	std	Z+7, r24	; 0x07
     238:	08 95       	ret

0000023a <_ZN9IRSensors4initEPhhhh>:
} //IRSensors

void IRSensors::init(unsigned char* pins,unsigned char numSensors,unsigned char numSamples,unsigned char emitterPin)
{
     23a:	cf 92       	push	r12
     23c:	df 92       	push	r13
     23e:	ef 92       	push	r14
     240:	ff 92       	push	r15
     242:	0f 93       	push	r16
     244:	cf 93       	push	r28
     246:	df 93       	push	r29
     248:	ec 01       	movw	r28, r24
     24a:	7b 01       	movw	r14, r22

class Analog {
	public:
	Analog();
	inline static void init(){
	ADCSRA = 0;
     24c:	ea e7       	ldi	r30, 0x7A	; 122
     24e:	f0 e0       	ldi	r31, 0x00	; 0
     250:	10 82       	st	Z, r1
	ADMUX = 0;
     252:	6c e7       	ldi	r22, 0x7C	; 124
     254:	70 e0       	ldi	r23, 0x00	; 0
     256:	db 01       	movw	r26, r22
     258:	1c 92       	st	X, r1
	ADCSRB = 0;
     25a:	0f 2e       	mov	r0, r31
     25c:	fb e7       	ldi	r31, 0x7B	; 123
     25e:	cf 2e       	mov	r12, r31
     260:	d1 2c       	mov	r13, r1
     262:	f0 2d       	mov	r31, r0
     264:	d6 01       	movw	r26, r12
     266:	1c 92       	st	X, r1
	ADCSRA |= (1 << ADPS2) | (1 << ADPS1); // prescalar = 64
     268:	90 81       	ld	r25, Z
     26a:	96 60       	ori	r25, 0x06	; 6
     26c:	90 83       	st	Z, r25
	ADMUX |= (1 << REFS0); // reference voltage from internal source
     26e:	db 01       	movw	r26, r22
     270:	9c 91       	ld	r25, X
     272:	90 64       	ori	r25, 0x40	; 64
     274:	9c 93       	st	X, r25
	ADCSRA |= (1 << ADEN); // enable ADC
     276:	90 81       	ld	r25, Z
     278:	90 68       	ori	r25, 0x80	; 128
     27a:	90 83       	st	Z, r25
	DIDR0 |= ((1<<ADC5D) | (1<<ADC6D) | (1<<ADC7D) | (1<<ADC4D)); //Deshabilita la funcion digital de los pines analogos
     27c:	6e e7       	ldi	r22, 0x7E	; 126
     27e:	70 e0       	ldi	r23, 0x00	; 0
     280:	db 01       	movw	r26, r22
     282:	9c 91       	ld	r25, X
     284:	90 6f       	ori	r25, 0xF0	; 240
     286:	9c 93       	st	X, r25
	//Deshabilitar JTAG para usar el puerto F. (Si no deshabilita el ADC no lee valores por debajo de 200)
	MCUCR |= (1<<JTD);
     288:	95 b7       	in	r25, 0x35	; 53
     28a:	90 68       	ori	r25, 0x80	; 128
     28c:	95 bf       	out	0x35, r25	; 53
	MCUCR |= (1<<JTD);
     28e:	95 b7       	in	r25, 0x35	; 53
     290:	90 68       	ori	r25, 0x80	; 128
     292:	95 bf       	out	0x35, r25	; 53
	ADCSRA |= (1<<ADHSM);
     294:	90 81       	ld	r25, Z
     296:	90 68       	ori	r25, 0x80	; 128
     298:	90 83       	st	Z, r25
	ADCSRB = 0;
     29a:	d6 01       	movw	r26, r12
     29c:	1c 92       	st	X, r1
	ADCSRA |= (1 << ADSC); // start A2D conversions
     29e:	90 81       	ld	r25, Z
     2a0:	90 64       	ori	r25, 0x40	; 64
     2a2:	90 83       	st	Z, r25
	Analog::init();
	calibratedMinimum=0;
     2a4:	1b 82       	std	Y+3, r1	; 0x03
     2a6:	1a 82       	std	Y+2, r1	; 0x02
	calibratedMaximum=0;
     2a8:	19 82       	std	Y+1, r1	; 0x01
     2aa:	18 82       	st	Y, r1
	_numSensors = numSensors;
     2ac:	4e 83       	std	Y+6, r20	; 0x06
	_numSamples = numSamples;
     2ae:	2f 83       	std	Y+7, r18	; 0x07
	if (_pins == 0)
     2b0:	8c 81       	ldd	r24, Y+4	; 0x04
     2b2:	9d 81       	ldd	r25, Y+5	; 0x05
     2b4:	89 2b       	or	r24, r25
     2b6:	31 f4       	brne	.+12     	; 0x2c4 <_ZN9IRSensors4initEPhhhh+0x8a>
	{
		 _pins = (unsigned char*)malloc(sizeof(unsigned char)*_numSensors);
     2b8:	84 2f       	mov	r24, r20
     2ba:	90 e0       	ldi	r25, 0x00	; 0
     2bc:	0e 94 7e 19 	call	0x32fc	; 0x32fc <malloc>
     2c0:	9d 83       	std	Y+5, r25	; 0x05
     2c2:	8c 83       	std	Y+4, r24	; 0x04
	}
	unsigned char i;
	for (i = 0; i < _numSensors; i++)
     2c4:	8e 81       	ldd	r24, Y+6	; 0x06
     2c6:	88 23       	and	r24, r24
     2c8:	89 f0       	breq	.+34     	; 0x2ec <_ZN9IRSensors4initEPhhhh+0xb2>
     2ca:	90 e0       	ldi	r25, 0x00	; 0
	{
	 _pins[i] = pins[i];
     2cc:	29 2f       	mov	r18, r25
     2ce:	30 e0       	ldi	r19, 0x00	; 0
     2d0:	f7 01       	movw	r30, r14
     2d2:	e2 0f       	add	r30, r18
     2d4:	f3 1f       	adc	r31, r19
     2d6:	80 81       	ld	r24, Z
     2d8:	4c 81       	ldd	r20, Y+4	; 0x04
     2da:	5d 81       	ldd	r21, Y+5	; 0x05
     2dc:	fa 01       	movw	r30, r20
     2de:	e2 0f       	add	r30, r18
     2e0:	f3 1f       	adc	r31, r19
     2e2:	80 83       	st	Z, r24
	if (_pins == 0)
	{
		 _pins = (unsigned char*)malloc(sizeof(unsigned char)*_numSensors);
	}
	unsigned char i;
	for (i = 0; i < _numSensors; i++)
     2e4:	9f 5f       	subi	r25, 0xFF	; 255
     2e6:	8e 81       	ldd	r24, Y+6	; 0x06
     2e8:	98 17       	cp	r25, r24
     2ea:	80 f3       	brcs	.-32     	; 0x2cc <_ZN9IRSensors4initEPhhhh+0x92>
	{
	 _pins[i] = pins[i];
	}
	DDRF &= (~(1<<0) & ~(1<<1));
     2ec:	80 b3       	in	r24, 0x10	; 16
     2ee:	8c 7f       	andi	r24, 0xFC	; 252
     2f0:	80 bb       	out	0x10, r24	; 16
	DDRC &= (~(1<<7) & ~(1<<6));	
     2f2:	87 b1       	in	r24, 0x07	; 7
     2f4:	8f 73       	andi	r24, 0x3F	; 63
     2f6:	87 b9       	out	0x07, r24	; 7
		io->pinRegister = 0;
		io->portRegister = 0;
		io->ddrRegister = 0;
		io->bitmask = 0;
		
		if (pin < 8)			// pin 0 = PB0, ..., 7 = PB7
     2f8:	08 30       	cpi	r16, 0x08	; 8
     2fa:	58 f4       	brcc	.+22     	; 0x312 <_ZN9IRSensors4initEPhhhh+0xd8>
		{
			io->pinRegister = (unsigned char*)&PINB;
			io->portRegister = (unsigned char*)&PORTB;
			io->ddrRegister = (unsigned char*)&DDRB;
			io->bitmask = 1 << pin;
     2fc:	81 e0       	ldi	r24, 0x01	; 1
     2fe:	00 2e       	mov	r0, r16
     300:	01 c0       	rjmp	.+2      	; 0x304 <_ZN9IRSensors4initEPhhhh+0xca>
     302:	88 0f       	add	r24, r24
     304:	0a 94       	dec	r0
     306:	ea f7       	brpl	.-6      	; 0x302 <_ZN9IRSensors4initEPhhhh+0xc8>
		
		if (pin < 8)			// pin 0 = PB0, ..., 7 = PB7
		{
			io->pinRegister = (unsigned char*)&PINB;
			io->portRegister = (unsigned char*)&PORTB;
			io->ddrRegister = (unsigned char*)&DDRB;
     308:	e4 e2       	ldi	r30, 0x24	; 36
     30a:	f0 e0       	ldi	r31, 0x00	; 0
		io->bitmask = 0;
		
		if (pin < 8)			// pin 0 = PB0, ..., 7 = PB7
		{
			io->pinRegister = (unsigned char*)&PINB;
			io->portRegister = (unsigned char*)&PORTB;
     30c:	a5 e2       	ldi	r26, 0x25	; 37
     30e:	b0 e0       	ldi	r27, 0x00	; 0
     310:	45 c0       	rjmp	.+138    	; 0x39c <_ZN9IRSensors4initEPhhhh+0x162>
			io->ddrRegister = (unsigned char*)&DDRB;
			io->bitmask = 1 << pin;
		}
		else if (pin < 16)
     312:	00 31       	cpi	r16, 0x10	; 16
     314:	60 f4       	brcc	.+24     	; 0x32e <_ZN9IRSensors4initEPhhhh+0xf4>
		{
			io->pinRegister = (unsigned char*)&PIND;
			io->portRegister = (unsigned char*)&PORTD;
			io->ddrRegister = (unsigned char*)&DDRD;
			io->bitmask = 1 << (pin - 8);
     316:	81 e0       	ldi	r24, 0x01	; 1
     318:	98 ef       	ldi	r25, 0xF8	; 248
     31a:	90 0f       	add	r25, r16
     31c:	01 c0       	rjmp	.+2      	; 0x320 <_ZN9IRSensors4initEPhhhh+0xe6>
     31e:	88 0f       	add	r24, r24
     320:	9a 95       	dec	r25
     322:	ea f7       	brpl	.-6      	; 0x31e <_ZN9IRSensors4initEPhhhh+0xe4>
		}
		else if (pin < 16)
		{
			io->pinRegister = (unsigned char*)&PIND;
			io->portRegister = (unsigned char*)&PORTD;
			io->ddrRegister = (unsigned char*)&DDRD;
     324:	ea e2       	ldi	r30, 0x2A	; 42
     326:	f0 e0       	ldi	r31, 0x00	; 0
			io->bitmask = 1 << pin;
		}
		else if (pin < 16)
		{
			io->pinRegister = (unsigned char*)&PIND;
			io->portRegister = (unsigned char*)&PORTD;
     328:	ab e2       	ldi	r26, 0x2B	; 43
     32a:	b0 e0       	ldi	r27, 0x00	; 0
     32c:	37 c0       	rjmp	.+110    	; 0x39c <_ZN9IRSensors4initEPhhhh+0x162>
			io->ddrRegister = (unsigned char*)&DDRD;
			io->bitmask = 1 << (pin - 8);
		}
		else if (pin < 22)		// Puerto F
     32e:	06 31       	cpi	r16, 0x16	; 22
     330:	d0 f4       	brcc	.+52     	; 0x366 <_ZN9IRSensors4initEPhhhh+0x12c>
		{
			io->pinRegister = (unsigned char*)&PINF;
			io->portRegister = (unsigned char*)&PORTF;
			io->ddrRegister = (unsigned char*)&DDRF;
			io->bitmask = 1 << ((pin - 16) > 1 ? (pin-14) : (pin - 16));
     332:	80 2f       	mov	r24, r16
     334:	90 e0       	ldi	r25, 0x00	; 0
     336:	9c 01       	movw	r18, r24
     338:	20 51       	subi	r18, 0x10	; 16
     33a:	31 09       	sbc	r19, r1
     33c:	22 30       	cpi	r18, 0x02	; 2
     33e:	31 05       	cpc	r19, r1
     340:	44 f0       	brlt	.+16     	; 0x352 <_ZN9IRSensors4initEPhhhh+0x118>
     342:	2e 5f       	subi	r18, 0xFE	; 254
     344:	3f 4f       	sbci	r19, 0xFF	; 255
     346:	81 e0       	ldi	r24, 0x01	; 1
     348:	01 c0       	rjmp	.+2      	; 0x34c <_ZN9IRSensors4initEPhhhh+0x112>
     34a:	88 0f       	add	r24, r24
     34c:	2a 95       	dec	r18
     34e:	ea f7       	brpl	.-6      	; 0x34a <_ZN9IRSensors4initEPhhhh+0x110>
     350:	05 c0       	rjmp	.+10     	; 0x35c <_ZN9IRSensors4initEPhhhh+0x122>
     352:	81 e0       	ldi	r24, 0x01	; 1
     354:	01 c0       	rjmp	.+2      	; 0x358 <_ZN9IRSensors4initEPhhhh+0x11e>
     356:	88 0f       	add	r24, r24
     358:	2a 95       	dec	r18
     35a:	ea f7       	brpl	.-6      	; 0x356 <_ZN9IRSensors4initEPhhhh+0x11c>
		}
		else if (pin < 22)		// Puerto F
		{
			io->pinRegister = (unsigned char*)&PINF;
			io->portRegister = (unsigned char*)&PORTF;
			io->ddrRegister = (unsigned char*)&DDRF;
     35c:	e0 e3       	ldi	r30, 0x30	; 48
     35e:	f0 e0       	ldi	r31, 0x00	; 0
			io->bitmask = 1 << (pin - 8);
		}
		else if (pin < 22)		// Puerto F
		{
			io->pinRegister = (unsigned char*)&PINF;
			io->portRegister = (unsigned char*)&PORTF;
     360:	a1 e3       	ldi	r26, 0x31	; 49
     362:	b0 e0       	ldi	r27, 0x00	; 0
     364:	1b c0       	rjmp	.+54     	; 0x39c <_ZN9IRSensors4initEPhhhh+0x162>
			io->ddrRegister = (unsigned char*)&DDRF;
			io->bitmask = 1 << ((pin - 16) > 1 ? (pin-14) : (pin - 16));
			}else if (pin < 24){
     366:	08 31       	cpi	r16, 0x18	; 24
     368:	60 f4       	brcc	.+24     	; 0x382 <_ZN9IRSensors4initEPhhhh+0x148>
			io->pinRegister = (unsigned char*)&PINC;
			io->portRegister = (unsigned char*)&PORTC;
			io->ddrRegister = (unsigned char*)&DDRC;
			io->bitmask = 1 << (pin-16);
     36a:	81 e0       	ldi	r24, 0x01	; 1
     36c:	90 ef       	ldi	r25, 0xF0	; 240
     36e:	90 0f       	add	r25, r16
     370:	01 c0       	rjmp	.+2      	; 0x374 <_ZN9IRSensors4initEPhhhh+0x13a>
     372:	88 0f       	add	r24, r24
     374:	9a 95       	dec	r25
     376:	ea f7       	brpl	.-6      	; 0x372 <_ZN9IRSensors4initEPhhhh+0x138>
			io->ddrRegister = (unsigned char*)&DDRF;
			io->bitmask = 1 << ((pin - 16) > 1 ? (pin-14) : (pin - 16));
			}else if (pin < 24){
			io->pinRegister = (unsigned char*)&PINC;
			io->portRegister = (unsigned char*)&PORTC;
			io->ddrRegister = (unsigned char*)&DDRC;
     378:	e7 e2       	ldi	r30, 0x27	; 39
     37a:	f0 e0       	ldi	r31, 0x00	; 0
			io->portRegister = (unsigned char*)&PORTF;
			io->ddrRegister = (unsigned char*)&DDRF;
			io->bitmask = 1 << ((pin - 16) > 1 ? (pin-14) : (pin - 16));
			}else if (pin < 24){
			io->pinRegister = (unsigned char*)&PINC;
			io->portRegister = (unsigned char*)&PORTC;
     37c:	a8 e2       	ldi	r26, 0x28	; 40
     37e:	b0 e0       	ldi	r27, 0x00	; 0
     380:	0d c0       	rjmp	.+26     	; 0x39c <_ZN9IRSensors4initEPhhhh+0x162>
			io->ddrRegister = (unsigned char*)&DDRC;
			io->bitmask = 1 << (pin-16);
			}else if (pin==24){
     382:	08 31       	cpi	r16, 0x18	; 24
     384:	31 f4       	brne	.+12     	; 0x392 <_ZN9IRSensors4initEPhhhh+0x158>
			io->pinRegister = (unsigned char*)&PINE;
			io->portRegister = (unsigned char*)&PORTE;
			io->ddrRegister = (unsigned char*)&DDRE;
			io->bitmask = 1 << 6;
     386:	80 e4       	ldi	r24, 0x40	; 64
			io->ddrRegister = (unsigned char*)&DDRC;
			io->bitmask = 1 << (pin-16);
			}else if (pin==24){
			io->pinRegister = (unsigned char*)&PINE;
			io->portRegister = (unsigned char*)&PORTE;
			io->ddrRegister = (unsigned char*)&DDRE;
     388:	ed e2       	ldi	r30, 0x2D	; 45
     38a:	f0 e0       	ldi	r31, 0x00	; 0
			io->portRegister = (unsigned char*)&PORTC;
			io->ddrRegister = (unsigned char*)&DDRC;
			io->bitmask = 1 << (pin-16);
			}else if (pin==24){
			io->pinRegister = (unsigned char*)&PINE;
			io->portRegister = (unsigned char*)&PORTE;
     38c:	ae e2       	ldi	r26, 0x2E	; 46
     38e:	b0 e0       	ldi	r27, 0x00	; 0
     390:	05 c0       	rjmp	.+10     	; 0x39c <_ZN9IRSensors4initEPhhhh+0x162>
	inline static void getIORegisters(struct IOStruct* io, unsigned char pin)
	{
		io->pinRegister = 0;
		io->portRegister = 0;
		io->ddrRegister = 0;
		io->bitmask = 0;
     392:	80 e0       	ldi	r24, 0x00	; 0
	// 1 in the position of the specified pin and 0s everywhere else.
	inline static void getIORegisters(struct IOStruct* io, unsigned char pin)
	{
		io->pinRegister = 0;
		io->portRegister = 0;
		io->ddrRegister = 0;
     394:	e0 e0       	ldi	r30, 0x00	; 0
     396:	f0 e0       	ldi	r31, 0x00	; 0
	// with the specified pin (DDR, PORT, and PIN) along with a bitmask with a
	// 1 in the position of the specified pin and 0s everywhere else.
	inline static void getIORegisters(struct IOStruct* io, unsigned char pin)
	{
		io->pinRegister = 0;
		io->portRegister = 0;
     398:	a0 e0       	ldi	r26, 0x00	; 0
     39a:	b0 e0       	ldi	r27, 0x00	; 0
		if (val == 0xFF)
		*(ioPin->portRegister) ^= ioPin->bitmask;
		else if (val)
		*(ioPin->portRegister) |= ioPin->bitmask;
		else
		*(ioPin->portRegister) &= ~ioPin->bitmask;
     39c:	9c 91       	ld	r25, X
     39e:	28 2f       	mov	r18, r24
     3a0:	20 95       	com	r18
     3a2:	92 23       	and	r25, r18
     3a4:	9c 93       	st	X, r25
	// low-level method for setting the data direction (i.e. input or output) of an pin or set of pins
	// described by an IOStruct pointer.
	inline static void setDataDirection(struct IOStruct* ioPin, unsigned char val)
	{
		if (val)
		*(ioPin->ddrRegister) |= ioPin->bitmask;
     3a6:	90 81       	ld	r25, Z
     3a8:	89 2b       	or	r24, r25
     3aa:	80 83       	st	Z, r24
	Digital::setOutput(emitterPin,LOW);
	_emitterPin = emitterPin;
     3ac:	0a 87       	std	Y+10, r16	; 0x0a
}
     3ae:	df 91       	pop	r29
     3b0:	cf 91       	pop	r28
     3b2:	0f 91       	pop	r16
     3b4:	ff 90       	pop	r15
     3b6:	ef 90       	pop	r14
     3b8:	df 90       	pop	r13
     3ba:	cf 90       	pop	r12
     3bc:	08 95       	ret

000003be <_ZN9IRSensors4readEPj>:

void IRSensors::read(unsigned int* sensor_values)
{
     3be:	af 92       	push	r10
     3c0:	bf 92       	push	r11
     3c2:	cf 92       	push	r12
     3c4:	df 92       	push	r13
     3c6:	ef 92       	push	r14
     3c8:	ff 92       	push	r15
     3ca:	0f 93       	push	r16
     3cc:	1f 93       	push	r17
     3ce:	cf 93       	push	r28
     3d0:	df 93       	push	r29
     3d2:	ec 01       	movw	r28, r24
     3d4:	8b 01       	movw	r16, r22
	if (_pins == 0)
     3d6:	8c 81       	ldd	r24, Y+4	; 0x04
     3d8:	9d 81       	ldd	r25, Y+5	; 0x05
     3da:	89 2b       	or	r24, r25
     3dc:	09 f4       	brne	.+2      	; 0x3e0 <_ZN9IRSensors4readEPj+0x22>
     3de:	83 c0       	rjmp	.+262    	; 0x4e6 <_ZN9IRSensors4readEPj+0x128>
	return;
	unsigned char i,j;
	// reset the values
	for(i = 0; i < _numSensors; i++) sensor_values[i] = 0;
     3e0:	8e 81       	ldd	r24, Y+6	; 0x06
     3e2:	88 23       	and	r24, r24
     3e4:	09 f4       	brne	.+2      	; 0x3e8 <_ZN9IRSensors4readEPj+0x2a>
     3e6:	7c c0       	rjmp	.+248    	; 0x4e0 <_ZN9IRSensors4readEPj+0x122>
     3e8:	80 e0       	ldi	r24, 0x00	; 0
     3ea:	e8 2f       	mov	r30, r24
     3ec:	f0 e0       	ldi	r31, 0x00	; 0
     3ee:	ee 0f       	add	r30, r30
     3f0:	ff 1f       	adc	r31, r31
     3f2:	e0 0f       	add	r30, r16
     3f4:	f1 1f       	adc	r31, r17
     3f6:	11 82       	std	Z+1, r1	; 0x01
     3f8:	10 82       	st	Z, r1
     3fa:	8f 5f       	subi	r24, 0xFF	; 255
     3fc:	9e 81       	ldd	r25, Y+6	; 0x06
     3fe:	89 17       	cp	r24, r25
     400:	a0 f3       	brcs	.-24     	; 0x3ea <_ZN9IRSensors4readEPj+0x2c>

	for (j = 0; j < _numSamples; j++)
     402:	8f 81       	ldd	r24, Y+7	; 0x07
     404:	81 11       	cpse	r24, r1
     406:	3e c0       	rjmp	.+124    	; 0x484 <_ZN9IRSensors4readEPj+0xc6>
     408:	4f c0       	rjmp	.+158    	; 0x4a8 <_ZN9IRSensors4readEPj+0xea>
	{
	 for (i = 0; i <_numSensors; i++)
     40a:	9a 2d       	mov	r25, r10
	 {
		 if(i>= 0 && i<_numSensors) sensor_values[i] += Analog::read(_pins[i]);   
     40c:	92 17       	cp	r25, r18
     40e:	88 f5       	brcc	.+98     	; 0x472 <_ZN9IRSensors4readEPj+0xb4>
     410:	c9 2e       	mov	r12, r25
     412:	d1 2c       	mov	r13, r1
     414:	2c 81       	ldd	r18, Y+4	; 0x04
     416:	3d 81       	ldd	r19, Y+5	; 0x05
     418:	2c 0d       	add	r18, r12
     41a:	3d 1d       	adc	r19, r13
     41c:	d9 01       	movw	r26, r18
     41e:	3c 91       	ld	r19, X
	ADCSRB = 0;
	ADCSRA |= (1 << ADSC); // start A2D conversions
	}
    inline static uint16_t read(unsigned char ch)
    {
	    if (ch >=8)//
     420:	38 30       	cpi	r19, 0x08	; 8
     422:	30 f0       	brcs	.+12     	; 0x430 <_ZN9IRSensors4readEPj+0x72>
	    {
		    ch -= 0x08;//ch - 8
     424:	38 50       	subi	r19, 0x08	; 8
		    ADCSRB |=  (1 << MUX5);
     426:	db 01       	movw	r26, r22
     428:	2c 91       	ld	r18, X
     42a:	20 62       	ori	r18, 0x20	; 32
     42c:	2c 93       	st	X, r18
     42e:	04 c0       	rjmp	.+8      	; 0x438 <_ZN9IRSensors4readEPj+0x7a>
	    }
	    else
	    {
		    ADCSRB &=  ~(1 << MUX5);   // Limpia el bit para canales mayores a 7
     430:	db 01       	movw	r26, r22
     432:	2c 91       	ld	r18, X
     434:	2f 7d       	andi	r18, 0xDF	; 223
     436:	2c 93       	st	X, r18
	    }
// 	    prevChannel = ADMUX; //Limpia el canal anterior y guarda la configuracion de voltaje de referencia
// 	    prevChannel &= 0b11100000;
	    ADMUX = 0b01000000;
     438:	da 01       	movw	r26, r20
     43a:	8c 93       	st	X, r24
	    ADMUX |= ch; // selecting channel
     43c:	2c 91       	ld	r18, X
     43e:	23 2b       	or	r18, r19
     440:	2c 93       	st	X, r18
	    ADCSRA |= ((1<<ADSC) | (1<<ADEN));   // Inicia la conversion
     442:	20 81       	ld	r18, Z
     444:	20 6c       	ori	r18, 0xC0	; 192
     446:	20 83       	st	Z, r18
	    while(!(ADCSRA & (1<<ADIF))); //Espera que se complete la conversion
     448:	20 81       	ld	r18, Z
     44a:	24 ff       	sbrs	r18, 4
     44c:	fd cf       	rjmp	.-6      	; 0x448 <_ZN9IRSensors4readEPj+0x8a>
	    ADCSRA &= (~(1<<ADEN));
     44e:	20 81       	ld	r18, Z
     450:	2f 77       	andi	r18, 0x7F	; 127
     452:	20 83       	st	Z, r18
	    return (ADC);
     454:	d7 01       	movw	r26, r14
     456:	2d 91       	ld	r18, X+
     458:	3c 91       	ld	r19, X
     45a:	d6 01       	movw	r26, r12
     45c:	aa 0f       	add	r26, r26
     45e:	bb 1f       	adc	r27, r27
     460:	a0 0f       	add	r26, r16
     462:	b1 1f       	adc	r27, r17
     464:	cd 90       	ld	r12, X+
     466:	dc 90       	ld	r13, X
     468:	11 97       	sbiw	r26, 0x01	; 1
     46a:	2c 0d       	add	r18, r12
     46c:	3d 1d       	adc	r19, r13
     46e:	2d 93       	st	X+, r18
     470:	3c 93       	st	X, r19
	// reset the values
	for(i = 0; i < _numSensors; i++) sensor_values[i] = 0;

	for (j = 0; j < _numSamples; j++)
	{
	 for (i = 0; i <_numSensors; i++)
     472:	9f 5f       	subi	r25, 0xFF	; 255
     474:	2e 81       	ldd	r18, Y+6	; 0x06
     476:	92 17       	cp	r25, r18
     478:	48 f2       	brcs	.-110    	; 0x40c <_ZN9IRSensors4readEPj+0x4e>
	return;
	unsigned char i,j;
	// reset the values
	for(i = 0; i < _numSensors; i++) sensor_values[i] = 0;

	for (j = 0; j < _numSamples; j++)
     47a:	b3 94       	inc	r11
     47c:	9f 81       	ldd	r25, Y+7	; 0x07
     47e:	b9 16       	cp	r11, r25
     480:	78 f0       	brcs	.+30     	; 0x4a0 <_ZN9IRSensors4readEPj+0xe2>
     482:	12 c0       	rjmp	.+36     	; 0x4a8 <_ZN9IRSensors4readEPj+0xea>
	{
	 for (i = 0; i <_numSensors; i++)
     484:	b1 2c       	mov	r11, r1
     486:	a1 2c       	mov	r10, r1
	    {
		    ADCSRB &=  ~(1 << MUX5);   // Limpia el bit para canales mayores a 7
	    }
// 	    prevChannel = ADMUX; //Limpia el canal anterior y guarda la configuracion de voltaje de referencia
// 	    prevChannel &= 0b11100000;
	    ADMUX = 0b01000000;
     488:	4c e7       	ldi	r20, 0x7C	; 124
     48a:	50 e0       	ldi	r21, 0x00	; 0
     48c:	80 e4       	ldi	r24, 0x40	; 64
	    ADMUX |= ch; // selecting channel
	    ADCSRA |= ((1<<ADSC) | (1<<ADEN));   // Inicia la conversion
     48e:	ea e7       	ldi	r30, 0x7A	; 122
     490:	f0 e0       	ldi	r31, 0x00	; 0
	    while(!(ADCSRA & (1<<ADIF))); //Espera que se complete la conversion
	    ADCSRA &= (~(1<<ADEN));
	    return (ADC);
     492:	0f 2e       	mov	r0, r31
     494:	f8 e7       	ldi	r31, 0x78	; 120
     496:	ef 2e       	mov	r14, r31
     498:	f1 2c       	mov	r15, r1
     49a:	f0 2d       	mov	r31, r0
		    ch -= 0x08;//ch - 8
		    ADCSRB |=  (1 << MUX5);
	    }
	    else
	    {
		    ADCSRB &=  ~(1 << MUX5);   // Limpia el bit para canales mayores a 7
     49c:	6b e7       	ldi	r22, 0x7B	; 123
     49e:	70 e0       	ldi	r23, 0x00	; 0
     4a0:	2e 81       	ldd	r18, Y+6	; 0x06
     4a2:	21 11       	cpse	r18, r1
     4a4:	b2 cf       	rjmp	.-156    	; 0x40a <_ZN9IRSensors4readEPj+0x4c>
     4a6:	e9 cf       	rjmp	.-46     	; 0x47a <_ZN9IRSensors4readEPj+0xbc>
	 {
		 if(i>= 0 && i<_numSensors) sensor_values[i] += Analog::read(_pins[i]);   
	 }
	}
	// get the rounded average of the readings for each sensor
	for (i = 0; i < _numSensors; i++){
     4a8:	8e 81       	ldd	r24, Y+6	; 0x06
     4aa:	88 23       	and	r24, r24
     4ac:	e1 f0       	breq	.+56     	; 0x4e6 <_ZN9IRSensors4readEPj+0x128>
     4ae:	20 e0       	ldi	r18, 0x00	; 0
	sensor_values[i] = (sensor_values[i] + (_numSamples >> 1)) / _numSamples;}
     4b0:	e2 2f       	mov	r30, r18
     4b2:	f0 e0       	ldi	r31, 0x00	; 0
     4b4:	ee 0f       	add	r30, r30
     4b6:	ff 1f       	adc	r31, r31
     4b8:	e0 0f       	add	r30, r16
     4ba:	f1 1f       	adc	r31, r17
     4bc:	6f 81       	ldd	r22, Y+7	; 0x07
     4be:	70 e0       	ldi	r23, 0x00	; 0
     4c0:	ab 01       	movw	r20, r22
     4c2:	55 95       	asr	r21
     4c4:	47 95       	ror	r20
     4c6:	80 81       	ld	r24, Z
     4c8:	91 81       	ldd	r25, Z+1	; 0x01
     4ca:	84 0f       	add	r24, r20
     4cc:	95 1f       	adc	r25, r21
     4ce:	0e 94 cb 18 	call	0x3196	; 0x3196 <__udivmodhi4>
     4d2:	71 83       	std	Z+1, r23	; 0x01
     4d4:	60 83       	st	Z, r22
	 {
		 if(i>= 0 && i<_numSensors) sensor_values[i] += Analog::read(_pins[i]);   
	 }
	}
	// get the rounded average of the readings for each sensor
	for (i = 0; i < _numSensors; i++){
     4d6:	2f 5f       	subi	r18, 0xFF	; 255
     4d8:	8e 81       	ldd	r24, Y+6	; 0x06
     4da:	28 17       	cp	r18, r24
     4dc:	48 f3       	brcs	.-46     	; 0x4b0 <_ZN9IRSensors4readEPj+0xf2>
     4de:	03 c0       	rjmp	.+6      	; 0x4e6 <_ZN9IRSensors4readEPj+0x128>
	return;
	unsigned char i,j;
	// reset the values
	for(i = 0; i < _numSensors; i++) sensor_values[i] = 0;

	for (j = 0; j < _numSamples; j++)
     4e0:	8f 81       	ldd	r24, Y+7	; 0x07
     4e2:	81 11       	cpse	r24, r1
     4e4:	cf cf       	rjmp	.-98     	; 0x484 <_ZN9IRSensors4readEPj+0xc6>
	 }
	}
	// get the rounded average of the readings for each sensor
	for (i = 0; i < _numSensors; i++){
	sensor_values[i] = (sensor_values[i] + (_numSamples >> 1)) / _numSamples;}
  }
     4e6:	df 91       	pop	r29
     4e8:	cf 91       	pop	r28
     4ea:	1f 91       	pop	r17
     4ec:	0f 91       	pop	r16
     4ee:	ff 90       	pop	r15
     4f0:	ef 90       	pop	r14
     4f2:	df 90       	pop	r13
     4f4:	cf 90       	pop	r12
     4f6:	bf 90       	pop	r11
     4f8:	af 90       	pop	r10
     4fa:	08 95       	ret

000004fc <_ZN9IRSensors9calibrateEv>:

void IRSensors::calibrate(){
     4fc:	2f 92       	push	r2
     4fe:	3f 92       	push	r3
     500:	4f 92       	push	r4
     502:	5f 92       	push	r5
     504:	6f 92       	push	r6
     506:	7f 92       	push	r7
     508:	8f 92       	push	r8
     50a:	9f 92       	push	r9
     50c:	af 92       	push	r10
     50e:	bf 92       	push	r11
     510:	cf 92       	push	r12
     512:	df 92       	push	r13
     514:	ef 92       	push	r14
     516:	ff 92       	push	r15
     518:	0f 93       	push	r16
     51a:	1f 93       	push	r17
     51c:	cf 93       	push	r28
     51e:	df 93       	push	r29
     520:	cd b7       	in	r28, 0x3d	; 61
     522:	de b7       	in	r29, 0x3e	; 62
     524:	28 97       	sbiw	r28, 0x08	; 8
     526:	0f b6       	in	r0, 0x3f	; 63
     528:	f8 94       	cli
     52a:	de bf       	out	0x3e, r29	; 62
     52c:	0f be       	out	0x3f, r0	; 63
     52e:	cd bf       	out	0x3d, r28	; 61
     530:	7c 01       	movw	r14, r24
	        if(min_sensor_values[i] > calibratedMaximum[i])
		    calibratedMaximum[i] = min_sensor_values[i];
		    if(max_sensor_values[i] < calibratedMinimum[i])
		    calibratedMinimum[i] = max_sensor_values[i];
	    }
}
     532:	4d b7       	in	r20, 0x3d	; 61
     534:	5e b7       	in	r21, 0x3e	; 62
     536:	5e 83       	std	Y+6, r21	; 0x06
     538:	4d 83       	std	Y+5, r20	; 0x05
     53a:	2d b6       	in	r2, 0x3d	; 61
     53c:	3e b6       	in	r3, 0x3e	; 62
	sensor_values[i] = (sensor_values[i] + (_numSamples >> 1)) / _numSamples;}
  }

void IRSensors::calibrate(){
	    int i;
	    unsigned int sensor_values[_numSensors];
     53e:	dc 01       	movw	r26, r24
     540:	16 96       	adiw	r26, 0x06	; 6
     542:	2c 91       	ld	r18, X
     544:	82 2f       	mov	r24, r18
     546:	90 e0       	ldi	r25, 0x00	; 0
     548:	88 0f       	add	r24, r24
     54a:	99 1f       	adc	r25, r25
     54c:	ed b7       	in	r30, 0x3d	; 61
     54e:	fe b7       	in	r31, 0x3e	; 62
     550:	e8 1b       	sub	r30, r24
     552:	f9 0b       	sbc	r31, r25
     554:	0f b6       	in	r0, 0x3f	; 63
     556:	f8 94       	cli
     558:	fe bf       	out	0x3e, r31	; 62
     55a:	0f be       	out	0x3f, r0	; 63
     55c:	ed bf       	out	0x3d, r30	; 61
     55e:	4d b7       	in	r20, 0x3d	; 61
     560:	5e b7       	in	r21, 0x3e	; 62
     562:	4f 5f       	subi	r20, 0xFF	; 255
     564:	5f 4f       	sbci	r21, 0xFF	; 255
     566:	2a 01       	movw	r4, r20
	    unsigned int max_sensor_values[_numSensors];
     568:	ad b7       	in	r26, 0x3d	; 61
     56a:	be b7       	in	r27, 0x3e	; 62
     56c:	a8 1b       	sub	r26, r24
     56e:	b9 0b       	sbc	r27, r25
     570:	0f b6       	in	r0, 0x3f	; 63
     572:	f8 94       	cli
     574:	be bf       	out	0x3e, r27	; 62
     576:	0f be       	out	0x3f, r0	; 63
     578:	ad bf       	out	0x3d, r26	; 61
     57a:	ed b7       	in	r30, 0x3d	; 61
     57c:	fe b7       	in	r31, 0x3e	; 62
     57e:	31 96       	adiw	r30, 0x01	; 1
     580:	fa 83       	std	Y+2, r31	; 0x02
     582:	e9 83       	std	Y+1, r30	; 0x01
     584:	99 80       	ldd	r9, Y+1	; 0x01
     586:	8a 80       	ldd	r8, Y+2	; 0x02
	    unsigned int min_sensor_values[_numSensors];
     588:	4d b7       	in	r20, 0x3d	; 61
     58a:	5e b7       	in	r21, 0x3e	; 62
     58c:	48 1b       	sub	r20, r24
     58e:	59 0b       	sbc	r21, r25
     590:	0f b6       	in	r0, 0x3f	; 63
     592:	f8 94       	cli
     594:	5e bf       	out	0x3e, r21	; 62
     596:	0f be       	out	0x3f, r0	; 63
     598:	4d bf       	out	0x3d, r20	; 61
     59a:	8d b7       	in	r24, 0x3d	; 61
     59c:	9e b7       	in	r25, 0x3e	; 62
     59e:	01 96       	adiw	r24, 0x01	; 1
     5a0:	9c 83       	std	Y+4, r25	; 0x04
     5a2:	8b 83       	std	Y+3, r24	; 0x03
     5a4:	db 80       	ldd	r13, Y+3	; 0x03
     5a6:	cc 80       	ldd	r12, Y+4	; 0x04

	    // Allocate the arrays if necessary.
	    if(calibratedMaximum == 0)
     5a8:	d7 01       	movw	r26, r14
     5aa:	8d 91       	ld	r24, X+
     5ac:	9c 91       	ld	r25, X
     5ae:	89 2b       	or	r24, r25
     5b0:	31 f5       	brne	.+76     	; 0x5fe <_ZN9IRSensors9calibrateEv+0x102>
	    {
		    calibratedMaximum = (unsigned int*)malloc(sizeof(unsigned int)*_numSensors);
     5b2:	82 2f       	mov	r24, r18
     5b4:	90 e0       	ldi	r25, 0x00	; 0
     5b6:	88 0f       	add	r24, r24
     5b8:	99 1f       	adc	r25, r25
     5ba:	0e 94 7e 19 	call	0x32fc	; 0x32fc <malloc>
     5be:	f7 01       	movw	r30, r14
     5c0:	91 83       	std	Z+1, r25	; 0x01
     5c2:	80 83       	st	Z, r24

		    // If the malloc failed, don't continue.
		    if(calibratedMaximum == 0)
     5c4:	89 2b       	or	r24, r25
     5c6:	09 f4       	brne	.+2      	; 0x5ca <_ZN9IRSensors9calibrateEv+0xce>
     5c8:	d3 c0       	rjmp	.+422    	; 0x770 <_ZN9IRSensors9calibrateEv+0x274>
		    return;

		    // Initialize the max and min calibrated values to values that
		    // will cause the first reading to update them.

		    for(i=0;i<_numSensors;i++)
     5ca:	86 81       	ldd	r24, Z+6	; 0x06
     5cc:	88 23       	and	r24, r24
     5ce:	b9 f0       	breq	.+46     	; 0x5fe <_ZN9IRSensors9calibrateEv+0x102>
     5d0:	20 e0       	ldi	r18, 0x00	; 0
     5d2:	30 e0       	ldi	r19, 0x00	; 0
     5d4:	d7 01       	movw	r26, r14
		    calibratedMaximum[i] = 0;
     5d6:	c9 01       	movw	r24, r18
     5d8:	88 0f       	add	r24, r24
     5da:	99 1f       	adc	r25, r25
     5dc:	ed 91       	ld	r30, X+
     5de:	fc 91       	ld	r31, X
     5e0:	11 97       	sbiw	r26, 0x01	; 1
     5e2:	e8 0f       	add	r30, r24
     5e4:	f9 1f       	adc	r31, r25
     5e6:	11 82       	std	Z+1, r1	; 0x01
     5e8:	10 82       	st	Z, r1
		    return;

		    // Initialize the max and min calibrated values to values that
		    // will cause the first reading to update them.

		    for(i=0;i<_numSensors;i++)
     5ea:	2f 5f       	subi	r18, 0xFF	; 255
     5ec:	3f 4f       	sbci	r19, 0xFF	; 255
     5ee:	16 96       	adiw	r26, 0x06	; 6
     5f0:	8c 91       	ld	r24, X
     5f2:	16 97       	sbiw	r26, 0x06	; 6
     5f4:	90 e0       	ldi	r25, 0x00	; 0
     5f6:	28 17       	cp	r18, r24
     5f8:	39 07       	cpc	r19, r25
     5fa:	6c f3       	brlt	.-38     	; 0x5d6 <_ZN9IRSensors9calibrateEv+0xda>
     5fc:	7d 01       	movw	r14, r26
		    calibratedMaximum[i] = 0;
	    }
	    if(calibratedMinimum == 0)
     5fe:	d7 01       	movw	r26, r14
     600:	12 96       	adiw	r26, 0x02	; 2
     602:	8d 91       	ld	r24, X+
     604:	9c 91       	ld	r25, X
     606:	13 97       	sbiw	r26, 0x03	; 3
     608:	89 2b       	or	r24, r25
     60a:	09 f0       	breq	.+2      	; 0x60e <_ZN9IRSensors9calibrateEv+0x112>
     60c:	b7 c0       	rjmp	.+366    	; 0x77c <_ZN9IRSensors9calibrateEv+0x280>
	    {
		    calibratedMinimum = (unsigned int*)malloc(sizeof(unsigned int)*_numSensors);
     60e:	16 96       	adiw	r26, 0x06	; 6
     610:	8c 91       	ld	r24, X
     612:	90 e0       	ldi	r25, 0x00	; 0
     614:	88 0f       	add	r24, r24
     616:	99 1f       	adc	r25, r25
     618:	0e 94 7e 19 	call	0x32fc	; 0x32fc <malloc>
     61c:	f7 01       	movw	r30, r14
     61e:	93 83       	std	Z+3, r25	; 0x03
     620:	82 83       	std	Z+2, r24	; 0x02

		    // If the malloc failed, don't continue.
		    if(calibratedMinimum == 0)
     622:	89 2b       	or	r24, r25
     624:	09 f4       	brne	.+2      	; 0x628 <_ZN9IRSensors9calibrateEv+0x12c>
     626:	a4 c0       	rjmp	.+328    	; 0x770 <_ZN9IRSensors9calibrateEv+0x274>
		    return;

		    for(i=0;i<_numSensors;i++)
     628:	86 81       	ldd	r24, Z+6	; 0x06
     62a:	88 23       	and	r24, r24
     62c:	09 f4       	brne	.+2      	; 0x630 <_ZN9IRSensors9calibrateEv+0x134>
     62e:	a6 c0       	rjmp	.+332    	; 0x77c <_ZN9IRSensors9calibrateEv+0x280>
     630:	20 e0       	ldi	r18, 0x00	; 0
     632:	30 e0       	ldi	r19, 0x00	; 0
		    calibratedMinimum[i] = 1023;
     634:	4f ef       	ldi	r20, 0xFF	; 255
     636:	53 e0       	ldi	r21, 0x03	; 3
     638:	d7 01       	movw	r26, r14
     63a:	c9 01       	movw	r24, r18
     63c:	88 0f       	add	r24, r24
     63e:	99 1f       	adc	r25, r25
     640:	12 96       	adiw	r26, 0x02	; 2
     642:	ed 91       	ld	r30, X+
     644:	fc 91       	ld	r31, X
     646:	13 97       	sbiw	r26, 0x03	; 3
     648:	e8 0f       	add	r30, r24
     64a:	f9 1f       	adc	r31, r25
     64c:	51 83       	std	Z+1, r21	; 0x01
     64e:	40 83       	st	Z, r20

		    // If the malloc failed, don't continue.
		    if(calibratedMinimum == 0)
		    return;

		    for(i=0;i<_numSensors;i++)
     650:	2f 5f       	subi	r18, 0xFF	; 255
     652:	3f 4f       	sbci	r19, 0xFF	; 255
     654:	16 96       	adiw	r26, 0x06	; 6
     656:	8c 91       	ld	r24, X
     658:	16 97       	sbiw	r26, 0x06	; 6
     65a:	90 e0       	ldi	r25, 0x00	; 0
     65c:	28 17       	cp	r18, r24
     65e:	39 07       	cpc	r19, r25
     660:	64 f3       	brlt	.-40     	; 0x63a <_ZN9IRSensors9calibrateEv+0x13e>
     662:	7d 01       	movw	r14, r26
     664:	8b c0       	rjmp	.+278    	; 0x77c <_ZN9IRSensors9calibrateEv+0x280>
	    }

	    int j;
	    for(j=0;j<10;j++)
	    {
		    read(sensor_values);
     666:	b2 01       	movw	r22, r4
     668:	c5 01       	movw	r24, r10
     66a:	0e 94 df 01 	call	0x3be	; 0x3be <_ZN9IRSensors4readEPj>
		    for(i=0;i<_numSensors;i++)
     66e:	d5 01       	movw	r26, r10
     670:	16 96       	adiw	r26, 0x06	; 6
     672:	ec 90       	ld	r14, X
     674:	f1 2c       	mov	r15, r1
     676:	1e 14       	cp	r1, r14
     678:	1f 04       	cpc	r1, r15
     67a:	a4 f5       	brge	.+104    	; 0x6e4 <_ZN9IRSensors9calibrateEv+0x1e8>
     67c:	8d 2d       	mov	r24, r13
     67e:	9c 2d       	mov	r25, r12
     680:	f2 01       	movw	r30, r4
     682:	a9 2d       	mov	r26, r9
     684:	b8 2d       	mov	r27, r8
     686:	27 2d       	mov	r18, r7
     688:	36 2d       	mov	r19, r6
     68a:	ad 01       	movw	r20, r26
     68c:	98 87       	std	Y+8, r25	; 0x08
     68e:	8f 83       	std	Y+7, r24	; 0x07
     690:	ca 01       	movw	r24, r20
		    {
			    // set the max we found THIS time
			    if(j == 0 || max_sensor_values[i] < sensor_values[i])
     692:	01 15       	cp	r16, r1
     694:	11 05       	cpc	r17, r1
     696:	09 f4       	brne	.+2      	; 0x69a <_ZN9IRSensors9calibrateEv+0x19e>
     698:	7d c0       	rjmp	.+250    	; 0x794 <_ZN9IRSensors9calibrateEv+0x298>
     69a:	dc 01       	movw	r26, r24
     69c:	6d 91       	ld	r22, X+
     69e:	7c 91       	ld	r23, X
     6a0:	40 81       	ld	r20, Z
     6a2:	51 81       	ldd	r21, Z+1	; 0x01
     6a4:	64 17       	cp	r22, r20
     6a6:	75 07       	cpc	r23, r21
     6a8:	08 f4       	brcc	.+2      	; 0x6ac <_ZN9IRSensors9calibrateEv+0x1b0>
     6aa:	6e c0       	rjmp	.+220    	; 0x788 <_ZN9IRSensors9calibrateEv+0x28c>
			    max_sensor_values[i] = sensor_values[i];

			    // set the min we found THIS time
			    if(j == 0 || min_sensor_values[i] > sensor_values[i])
     6ac:	af 81       	ldd	r26, Y+7	; 0x07
     6ae:	b8 85       	ldd	r27, Y+8	; 0x08
     6b0:	6d 91       	ld	r22, X+
     6b2:	7c 91       	ld	r23, X
     6b4:	40 81       	ld	r20, Z
     6b6:	51 81       	ldd	r21, Z+1	; 0x01
     6b8:	46 17       	cp	r20, r22
     6ba:	57 07       	cpc	r21, r23
     6bc:	30 f4       	brcc	.+12     	; 0x6ca <_ZN9IRSensors9calibrateEv+0x1ce>
			    min_sensor_values[i] = sensor_values[i];
     6be:	40 81       	ld	r20, Z
     6c0:	51 81       	ldd	r21, Z+1	; 0x01
     6c2:	af 81       	ldd	r26, Y+7	; 0x07
     6c4:	b8 85       	ldd	r27, Y+8	; 0x08
     6c6:	4d 93       	st	X+, r20
     6c8:	5c 93       	st	X, r21

	    int j;
	    for(j=0;j<10;j++)
	    {
		    read(sensor_values);
		    for(i=0;i<_numSensors;i++)
     6ca:	2f 5f       	subi	r18, 0xFF	; 255
     6cc:	3f 4f       	sbci	r19, 0xFF	; 255
     6ce:	4f 81       	ldd	r20, Y+7	; 0x07
     6d0:	58 85       	ldd	r21, Y+8	; 0x08
     6d2:	4e 5f       	subi	r20, 0xFE	; 254
     6d4:	5f 4f       	sbci	r21, 0xFF	; 255
     6d6:	58 87       	std	Y+8, r21	; 0x08
     6d8:	4f 83       	std	Y+7, r20	; 0x07
     6da:	32 96       	adiw	r30, 0x02	; 2
     6dc:	02 96       	adiw	r24, 0x02	; 2
     6de:	2e 15       	cp	r18, r14
     6e0:	3f 05       	cpc	r19, r15
     6e2:	bc f2       	brlt	.-82     	; 0x692 <_ZN9IRSensors9calibrateEv+0x196>
		    for(i=0;i<_numSensors;i++)
		    calibratedMinimum[i] = 1023;
	    }

	    int j;
	    for(j=0;j<10;j++)
     6e4:	0f 5f       	subi	r16, 0xFF	; 255
     6e6:	1f 4f       	sbci	r17, 0xFF	; 255
     6e8:	0a 30       	cpi	r16, 0x0A	; 10
     6ea:	11 05       	cpc	r17, r1
     6ec:	09 f0       	breq	.+2      	; 0x6f0 <_ZN9IRSensors9calibrateEv+0x1f4>
     6ee:	bb cf       	rjmp	.-138    	; 0x666 <_ZN9IRSensors9calibrateEv+0x16a>
			    min_sensor_values[i] = sensor_values[i];
		    }
	    }

	    // record the min and max calibration values
	    for(i=0;i<_numSensors;i++)
     6f0:	d5 01       	movw	r26, r10
     6f2:	16 96       	adiw	r26, 0x06	; 6
     6f4:	8c 91       	ld	r24, X
     6f6:	88 23       	and	r24, r24
     6f8:	a9 f1       	breq	.+106    	; 0x764 <_ZN9IRSensors9calibrateEv+0x268>
     6fa:	6b 81       	ldd	r22, Y+3	; 0x03
     6fc:	7c 81       	ldd	r23, Y+4	; 0x04
     6fe:	a9 81       	ldd	r26, Y+1	; 0x01
     700:	ba 81       	ldd	r27, Y+2	; 0x02
     702:	20 e0       	ldi	r18, 0x00	; 0
     704:	30 e0       	ldi	r19, 0x00	; 0
     706:	ad 01       	movw	r20, r26
     708:	d5 01       	movw	r26, r10
	    {
	        if(min_sensor_values[i] > calibratedMaximum[i])
     70a:	fb 01       	movw	r30, r22
     70c:	01 91       	ld	r16, Z+
     70e:	11 91       	ld	r17, Z+
     710:	bf 01       	movw	r22, r30
     712:	c9 01       	movw	r24, r18
     714:	88 0f       	add	r24, r24
     716:	99 1f       	adc	r25, r25
     718:	ed 91       	ld	r30, X+
     71a:	fc 91       	ld	r31, X
     71c:	11 97       	sbiw	r26, 0x01	; 1
     71e:	e8 0f       	add	r30, r24
     720:	f9 1f       	adc	r31, r25
     722:	e0 80       	ld	r14, Z
     724:	f1 80       	ldd	r15, Z+1	; 0x01
     726:	e0 16       	cp	r14, r16
     728:	f1 06       	cpc	r15, r17
     72a:	10 f4       	brcc	.+4      	; 0x730 <_ZN9IRSensors9calibrateEv+0x234>
		    calibratedMaximum[i] = min_sensor_values[i];
     72c:	11 83       	std	Z+1, r17	; 0x01
     72e:	00 83       	st	Z, r16
		    if(max_sensor_values[i] < calibratedMinimum[i])
     730:	fa 01       	movw	r30, r20
     732:	01 91       	ld	r16, Z+
     734:	11 91       	ld	r17, Z+
     736:	af 01       	movw	r20, r30
     738:	12 96       	adiw	r26, 0x02	; 2
     73a:	ed 91       	ld	r30, X+
     73c:	fc 91       	ld	r31, X
     73e:	13 97       	sbiw	r26, 0x03	; 3
     740:	e8 0f       	add	r30, r24
     742:	f9 1f       	adc	r31, r25
     744:	80 81       	ld	r24, Z
     746:	91 81       	ldd	r25, Z+1	; 0x01
     748:	08 17       	cp	r16, r24
     74a:	19 07       	cpc	r17, r25
     74c:	10 f4       	brcc	.+4      	; 0x752 <_ZN9IRSensors9calibrateEv+0x256>
		    calibratedMinimum[i] = max_sensor_values[i];
     74e:	11 83       	std	Z+1, r17	; 0x01
     750:	00 83       	st	Z, r16
			    min_sensor_values[i] = sensor_values[i];
		    }
	    }

	    // record the min and max calibration values
	    for(i=0;i<_numSensors;i++)
     752:	2f 5f       	subi	r18, 0xFF	; 255
     754:	3f 4f       	sbci	r19, 0xFF	; 255
     756:	16 96       	adiw	r26, 0x06	; 6
     758:	8c 91       	ld	r24, X
     75a:	16 97       	sbiw	r26, 0x06	; 6
     75c:	90 e0       	ldi	r25, 0x00	; 0
     75e:	28 17       	cp	r18, r24
     760:	39 07       	cpc	r19, r25
     762:	9c f2       	brlt	.-90     	; 0x70a <_ZN9IRSensors9calibrateEv+0x20e>
     764:	0f b6       	in	r0, 0x3f	; 63
     766:	f8 94       	cli
     768:	3e be       	out	0x3e, r3	; 62
     76a:	0f be       	out	0x3f, r0	; 63
     76c:	2d be       	out	0x3d, r2	; 61
     76e:	18 c0       	rjmp	.+48     	; 0x7a0 <_ZN9IRSensors9calibrateEv+0x2a4>
	    {
		    calibratedMaximum = (unsigned int*)malloc(sizeof(unsigned int)*_numSensors);

		    // If the malloc failed, don't continue.
		    if(calibratedMaximum == 0)
		    return;
     770:	0f b6       	in	r0, 0x3f	; 63
     772:	f8 94       	cli
     774:	3e be       	out	0x3e, r3	; 62
     776:	0f be       	out	0x3f, r0	; 63
     778:	2d be       	out	0x3d, r2	; 61
     77a:	12 c0       	rjmp	.+36     	; 0x7a0 <_ZN9IRSensors9calibrateEv+0x2a4>

		    // If the malloc failed, don't continue.
		    if(calibratedMinimum == 0)
		    return;

		    for(i=0;i<_numSensors;i++)
     77c:	00 e0       	ldi	r16, 0x00	; 0
     77e:	10 e0       	ldi	r17, 0x00	; 0

	    int j;
	    for(j=0;j<10;j++)
	    {
		    read(sensor_values);
		    for(i=0;i<_numSensors;i++)
     780:	71 2c       	mov	r7, r1
     782:	61 2c       	mov	r6, r1
     784:	57 01       	movw	r10, r14
     786:	6f cf       	rjmp	.-290    	; 0x666 <_ZN9IRSensors9calibrateEv+0x16a>
		    {
			    // set the max we found THIS time
			    if(j == 0 || max_sensor_values[i] < sensor_values[i])
			    max_sensor_values[i] = sensor_values[i];
     788:	40 81       	ld	r20, Z
     78a:	51 81       	ldd	r21, Z+1	; 0x01
     78c:	dc 01       	movw	r26, r24
     78e:	4d 93       	st	X+, r20
     790:	5c 93       	st	X, r21
     792:	8c cf       	rjmp	.-232    	; 0x6ac <_ZN9IRSensors9calibrateEv+0x1b0>
     794:	40 81       	ld	r20, Z
     796:	51 81       	ldd	r21, Z+1	; 0x01
     798:	dc 01       	movw	r26, r24
     79a:	4d 93       	st	X+, r20
     79c:	5c 93       	st	X, r21
     79e:	8f cf       	rjmp	.-226    	; 0x6be <_ZN9IRSensors9calibrateEv+0x1c2>
	        if(min_sensor_values[i] > calibratedMaximum[i])
		    calibratedMaximum[i] = min_sensor_values[i];
		    if(max_sensor_values[i] < calibratedMinimum[i])
		    calibratedMinimum[i] = max_sensor_values[i];
	    }
}
     7a0:	ed 81       	ldd	r30, Y+5	; 0x05
     7a2:	fe 81       	ldd	r31, Y+6	; 0x06
     7a4:	0f b6       	in	r0, 0x3f	; 63
     7a6:	f8 94       	cli
     7a8:	fe bf       	out	0x3e, r31	; 62
     7aa:	0f be       	out	0x3f, r0	; 63
     7ac:	ed bf       	out	0x3d, r30	; 61
     7ae:	28 96       	adiw	r28, 0x08	; 8
     7b0:	0f b6       	in	r0, 0x3f	; 63
     7b2:	f8 94       	cli
     7b4:	de bf       	out	0x3e, r29	; 62
     7b6:	0f be       	out	0x3f, r0	; 63
     7b8:	cd bf       	out	0x3d, r28	; 61
     7ba:	df 91       	pop	r29
     7bc:	cf 91       	pop	r28
     7be:	1f 91       	pop	r17
     7c0:	0f 91       	pop	r16
     7c2:	ff 90       	pop	r15
     7c4:	ef 90       	pop	r14
     7c6:	df 90       	pop	r13
     7c8:	cf 90       	pop	r12
     7ca:	bf 90       	pop	r11
     7cc:	af 90       	pop	r10
     7ce:	9f 90       	pop	r9
     7d0:	8f 90       	pop	r8
     7d2:	7f 90       	pop	r7
     7d4:	6f 90       	pop	r6
     7d6:	5f 90       	pop	r5
     7d8:	4f 90       	pop	r4
     7da:	3f 90       	pop	r3
     7dc:	2f 90       	pop	r2
     7de:	08 95       	ret

000007e0 <_ZN9IRSensors14readCalibratedEPj>:

void IRSensors::readCalibrated(unsigned int* sensor_values)
{
     7e0:	af 92       	push	r10
     7e2:	bf 92       	push	r11
     7e4:	cf 92       	push	r12
     7e6:	df 92       	push	r13
     7e8:	ef 92       	push	r14
     7ea:	ff 92       	push	r15
     7ec:	0f 93       	push	r16
     7ee:	1f 93       	push	r17
     7f0:	cf 93       	push	r28
     7f2:	df 93       	push	r29
     7f4:	8c 01       	movw	r16, r24
     7f6:	d6 2f       	mov	r29, r22
     7f8:	c7 2f       	mov	r28, r23
	int i;
	read(sensor_values);
     7fa:	0e 94 df 01 	call	0x3be	; 0x3be <_ZN9IRSensors4readEPj>
	   for(i=0;i<_numSensors;i++)
     7fe:	d8 01       	movw	r26, r16
     800:	16 96       	adiw	r26, 0x06	; 6
     802:	8c 91       	ld	r24, X
     804:	88 23       	and	r24, r24
     806:	09 f4       	brne	.+2      	; 0x80a <_ZN9IRSensors14readCalibratedEPj+0x2a>
     808:	58 c0       	rjmp	.+176    	; 0x8ba <_ZN9IRSensors14readCalibratedEPj+0xda>
     80a:	ed 2e       	mov	r14, r29
     80c:	fc 2e       	mov	r15, r28
     80e:	c0 e0       	ldi	r28, 0x00	; 0
     810:	d0 e0       	ldi	r29, 0x00	; 0
	   {
		 unsigned int denominator;
	     denominator = calibratedMaximum[i] - calibratedMinimum[i];
	     signed int x = 0;
     812:	c1 2c       	mov	r12, r1
     814:	d1 2c       	mov	r13, r1
     816:	0f 2e       	mov	r0, r31
     818:	f8 ee       	ldi	r31, 0xE8	; 232
     81a:	af 2e       	mov	r10, r31
     81c:	f0 2d       	mov	r31, r0
     81e:	0f 2e       	mov	r0, r31
     820:	f3 e0       	ldi	r31, 0x03	; 3
     822:	bf 2e       	mov	r11, r31
     824:	f0 2d       	mov	r31, r0
	int i;
	read(sensor_values);
	   for(i=0;i<_numSensors;i++)
	   {
		 unsigned int denominator;
	     denominator = calibratedMaximum[i] - calibratedMinimum[i];
     826:	d8 01       	movw	r26, r16
     828:	12 96       	adiw	r26, 0x02	; 2
     82a:	ed 91       	ld	r30, X+
     82c:	fc 91       	ld	r31, X
     82e:	13 97       	sbiw	r26, 0x03	; 3
     830:	9e 01       	movw	r18, r28
     832:	22 0f       	add	r18, r18
     834:	33 1f       	adc	r19, r19
     836:	e2 0f       	add	r30, r18
     838:	f3 1f       	adc	r31, r19
     83a:	80 81       	ld	r24, Z
     83c:	91 81       	ldd	r25, Z+1	; 0x01
     83e:	4d 91       	ld	r20, X+
     840:	5c 91       	ld	r21, X
     842:	fa 01       	movw	r30, r20
     844:	e2 0f       	add	r30, r18
     846:	f3 1f       	adc	r31, r19
     848:	20 81       	ld	r18, Z
     84a:	31 81       	ldd	r19, Z+1	; 0x01
     84c:	f9 01       	movw	r30, r18
     84e:	e8 1b       	sub	r30, r24
     850:	f9 0b       	sbc	r31, r25
	     signed int x = 0;
	     if(denominator != 0)
     852:	c1 f0       	breq	.+48     	; 0x884 <_ZN9IRSensors14readCalibratedEPj+0xa4>
	     x = (((signed long)sensor_values[i]) - calibratedMinimum[i]) * 1000 / denominator;
     854:	d7 01       	movw	r26, r14
     856:	2d 91       	ld	r18, X+
     858:	3c 91       	ld	r19, X
     85a:	a9 01       	movw	r20, r18
     85c:	60 e0       	ldi	r22, 0x00	; 0
     85e:	70 e0       	ldi	r23, 0x00	; 0
     860:	9a 01       	movw	r18, r20
     862:	ab 01       	movw	r20, r22
     864:	28 1b       	sub	r18, r24
     866:	39 0b       	sbc	r19, r25
     868:	41 09       	sbc	r20, r1
     86a:	51 09       	sbc	r21, r1
     86c:	a8 ee       	ldi	r26, 0xE8	; 232
     86e:	b3 e0       	ldi	r27, 0x03	; 3
     870:	0e 94 2d 19 	call	0x325a	; 0x325a <__muluhisi3>
     874:	9f 01       	movw	r18, r30
     876:	40 e0       	ldi	r20, 0x00	; 0
     878:	50 e0       	ldi	r21, 0x00	; 0
     87a:	0e 94 01 19 	call	0x3202	; 0x3202 <__divmodsi4>
     87e:	92 2f       	mov	r25, r18
     880:	83 2f       	mov	r24, r19
     882:	02 c0       	rjmp	.+4      	; 0x888 <_ZN9IRSensors14readCalibratedEPj+0xa8>
	read(sensor_values);
	   for(i=0;i<_numSensors;i++)
	   {
		 unsigned int denominator;
	     denominator = calibratedMaximum[i] - calibratedMinimum[i];
	     signed int x = 0;
     884:	9c 2d       	mov	r25, r12
     886:	8d 2d       	mov	r24, r13
     888:	29 2f       	mov	r18, r25
     88a:	38 2f       	mov	r19, r24
     88c:	29 3e       	cpi	r18, 0xE9	; 233
     88e:	b3 e0       	ldi	r27, 0x03	; 3
     890:	3b 07       	cpc	r19, r27
     892:	14 f0       	brlt	.+4      	; 0x898 <_ZN9IRSensors14readCalibratedEPj+0xb8>
     894:	2a 2d       	mov	r18, r10
     896:	3b 2d       	mov	r19, r11
     898:	33 23       	and	r19, r19
     89a:	14 f4       	brge	.+4      	; 0x8a0 <_ZN9IRSensors14readCalibratedEPj+0xc0>
     89c:	2c 2d       	mov	r18, r12
     89e:	3d 2d       	mov	r19, r13
	     if(denominator != 0)
	     x = (((signed long)sensor_values[i]) - calibratedMinimum[i]) * 1000 / denominator;
	     if(x < 0) x = 0;
	     else if(x > 1000)
	     x = 1000;
	     sensor_values[i] = x;
     8a0:	f7 01       	movw	r30, r14
     8a2:	21 93       	st	Z+, r18
     8a4:	31 93       	st	Z+, r19
     8a6:	7f 01       	movw	r14, r30

void IRSensors::readCalibrated(unsigned int* sensor_values)
{
	int i;
	read(sensor_values);
	   for(i=0;i<_numSensors;i++)
     8a8:	21 96       	adiw	r28, 0x01	; 1
     8aa:	d8 01       	movw	r26, r16
     8ac:	16 96       	adiw	r26, 0x06	; 6
     8ae:	8c 91       	ld	r24, X
     8b0:	90 e0       	ldi	r25, 0x00	; 0
     8b2:	c8 17       	cp	r28, r24
     8b4:	d9 07       	cpc	r29, r25
     8b6:	0c f4       	brge	.+2      	; 0x8ba <_ZN9IRSensors14readCalibratedEPj+0xda>
     8b8:	b6 cf       	rjmp	.-148    	; 0x826 <_ZN9IRSensors14readCalibratedEPj+0x46>
	     if(x < 0) x = 0;
	     else if(x > 1000)
	     x = 1000;
	     sensor_values[i] = x;
     }
}
     8ba:	df 91       	pop	r29
     8bc:	cf 91       	pop	r28
     8be:	1f 91       	pop	r17
     8c0:	0f 91       	pop	r16
     8c2:	ff 90       	pop	r15
     8c4:	ef 90       	pop	r14
     8c6:	df 90       	pop	r13
     8c8:	cf 90       	pop	r12
     8ca:	bf 90       	pop	r11
     8cc:	af 90       	pop	r10
     8ce:	08 95       	ret

000008d0 <_ZN9IRSensors11measureLineEPjjb>:

int IRSensors::measureLine(unsigned int* sensor_values,unsigned int noise,bool white)
{
     8d0:	2f 92       	push	r2
     8d2:	3f 92       	push	r3
     8d4:	4f 92       	push	r4
     8d6:	5f 92       	push	r5
     8d8:	6f 92       	push	r6
     8da:	7f 92       	push	r7
     8dc:	8f 92       	push	r8
     8de:	9f 92       	push	r9
     8e0:	af 92       	push	r10
     8e2:	bf 92       	push	r11
     8e4:	cf 92       	push	r12
     8e6:	df 92       	push	r13
     8e8:	ef 92       	push	r14
     8ea:	ff 92       	push	r15
     8ec:	0f 93       	push	r16
     8ee:	1f 93       	push	r17
     8f0:	cf 93       	push	r28
     8f2:	df 93       	push	r29
     8f4:	00 d0       	rcall	.+0      	; 0x8f6 <_ZN9IRSensors11measureLineEPjjb+0x26>
     8f6:	00 d0       	rcall	.+0      	; 0x8f8 <_ZN9IRSensors11measureLineEPjjb+0x28>
     8f8:	cd b7       	in	r28, 0x3d	; 61
     8fa:	de b7       	in	r29, 0x3e	; 62
     8fc:	9a 83       	std	Y+2, r25	; 0x02
     8fe:	89 83       	std	Y+1, r24	; 0x01
     900:	5b 01       	movw	r10, r22
     902:	6a 01       	movw	r12, r20
     904:	2b 83       	std	Y+3, r18	; 0x03
unsigned char i;
bool on_line = false;
unsigned long avg=0; // this is for the weighted total, which is long
unsigned int sum=0; // this is for the denominator which is <= 64000

	readCalibrated(sensor_values);
     906:	0e 94 f0 03 	call	0x7e0	; 0x7e0 <_ZN9IRSensors14readCalibratedEPj>

   for(i=0;i<(_numSensors+2);i++) {
     90a:	e9 81       	ldd	r30, Y+1	; 0x01
     90c:	fa 81       	ldd	r31, Y+2	; 0x02
     90e:	26 80       	ldd	r2, Z+6	; 0x06
     910:	31 2c       	mov	r3, r1
     912:	a1 01       	movw	r20, r2
     914:	4e 5f       	subi	r20, 0xFE	; 254
     916:	5f 4f       	sbci	r21, 0xFF	; 255
     918:	80 e0       	ldi	r24, 0x00	; 0
     91a:	90 e0       	ldi	r25, 0x00	; 0
     91c:	e1 2c       	mov	r14, r1
     91e:	f1 2c       	mov	r15, r1
     920:	41 2c       	mov	r4, r1
     922:	51 2c       	mov	r5, r1
     924:	32 01       	movw	r6, r4
     926:	91 2c       	mov	r9, r1
     928:	1c 82       	std	Y+4, r1	; 0x04
     92a:	e0 e0       	ldi	r30, 0x00	; 0
     92c:	f0 e0       	ldi	r31, 0x00	; 0
	  unsigned int value =  (i >= 1 && i < 5) ? sensor_values[i-1] : 0;
     switch(i){
		case 0: value = (bitRead(PINF,1) ? 1000 : 0); break;
		case 5: value = (bitRead(PINC,7) ? 1000 : 0); break;
	 }
	if(white) value = 1000-value;
     92e:	08 ee       	ldi	r16, 0xE8	; 232
     930:	13 e0       	ldi	r17, 0x03	; 3
     932:	81 2c       	mov	r8, r1
     934:	12 c0       	rjmp	.+36     	; 0x95a <_ZN9IRSensors11measureLineEPjjb+0x8a>
unsigned int sum=0; // this is for the denominator which is <= 64000

	readCalibrated(sensor_values);

   for(i=0;i<(_numSensors+2);i++) {
	  unsigned int value =  (i >= 1 && i < 5) ? sensor_values[i-1] : 0;
     936:	fc 81       	ldd	r31, Y+4	; 0x04
     938:	f4 30       	cpi	r31, 0x04	; 4
     93a:	60 f4       	brcc	.+24     	; 0x954 <_ZN9IRSensors11measureLineEPjjb+0x84>
     93c:	e2 2f       	mov	r30, r18
     93e:	f0 e0       	ldi	r31, 0x00	; 0
     940:	e1 50       	subi	r30, 0x01	; 1
     942:	f0 48       	sbci	r31, 0x80	; 128
     944:	ee 0f       	add	r30, r30
     946:	ff 1f       	adc	r31, r31
     948:	ea 0d       	add	r30, r10
     94a:	fb 1d       	adc	r31, r11
     94c:	01 90       	ld	r0, Z+
     94e:	f0 81       	ld	r31, Z
     950:	e0 2d       	mov	r30, r0
     952:	02 c0       	rjmp	.+4      	; 0x958 <_ZN9IRSensors11measureLineEPjjb+0x88>
     954:	e0 e0       	ldi	r30, 0x00	; 0
     956:	f8 2d       	mov	r31, r8
unsigned long avg=0; // this is for the weighted total, which is long
unsigned int sum=0; // this is for the denominator which is <= 64000

	readCalibrated(sensor_values);

   for(i=0;i<(_numSensors+2);i++) {
     958:	2c 83       	std	Y+4, r18	; 0x04
	  unsigned int value =  (i >= 1 && i < 5) ? sensor_values[i-1] : 0;
     switch(i){
     95a:	2c 81       	ldd	r18, Y+4	; 0x04
     95c:	22 23       	and	r18, r18
     95e:	19 f0       	breq	.+6      	; 0x966 <_ZN9IRSensors11measureLineEPjjb+0x96>
     960:	25 30       	cpi	r18, 0x05	; 5
     962:	21 f0       	breq	.+8      	; 0x96c <_ZN9IRSensors11measureLineEPjjb+0x9c>
     964:	06 c0       	rjmp	.+12     	; 0x972 <_ZN9IRSensors11measureLineEPjjb+0xa2>
		case 0: value = (bitRead(PINF,1) ? 1000 : 0); break;
     966:	79 99       	sbic	0x0f, 1	; 15
     968:	5a c0       	rjmp	.+180    	; 0xa1e <_ZN9IRSensors11measureLineEPjjb+0x14e>
     96a:	55 c0       	rjmp	.+170    	; 0xa16 <_ZN9IRSensors11measureLineEPjjb+0x146>
		case 5: value = (bitRead(PINC,7) ? 1000 : 0); break;
     96c:	37 99       	sbic	0x06, 7	; 6
     96e:	57 c0       	rjmp	.+174    	; 0xa1e <_ZN9IRSensors11measureLineEPjjb+0x14e>
     970:	52 c0       	rjmp	.+164    	; 0xa16 <_ZN9IRSensors11measureLineEPjjb+0x146>
	 }
	if(white) value = 1000-value;
     972:	3b 81       	ldd	r19, Y+3	; 0x03
     974:	33 23       	and	r19, r19
     976:	49 f0       	breq	.+18     	; 0x98a <_ZN9IRSensors11measureLineEPjjb+0xba>
     978:	04 c0       	rjmp	.+8      	; 0x982 <_ZN9IRSensors11measureLineEPjjb+0xb2>
     97a:	e0 e0       	ldi	r30, 0x00	; 0
     97c:	f8 2d       	mov	r31, r8
     97e:	01 c0       	rjmp	.+2      	; 0x982 <_ZN9IRSensors11measureLineEPjjb+0xb2>
     980:	f8 01       	movw	r30, r16
     982:	98 01       	movw	r18, r16
     984:	2e 1b       	sub	r18, r30
     986:	3f 0b       	sbc	r19, r31
     988:	f9 01       	movw	r30, r18
	
	if(value > 60) on_line = true;
     98a:	ed 33       	cpi	r30, 0x3D	; 61
     98c:	f1 05       	cpc	r31, r1
     98e:	10 f0       	brcs	.+4      	; 0x994 <_ZN9IRSensors11measureLineEPjjb+0xc4>
     990:	99 24       	eor	r9, r9
     992:	93 94       	inc	r9
	   
	if(value > noise) {
     994:	ce 16       	cp	r12, r30
     996:	df 06       	cpc	r13, r31
     998:	80 f4       	brcc	.+32     	; 0x9ba <_ZN9IRSensors11measureLineEPjjb+0xea>
     //  if(value > 800) value=1000;
		   avg += (long)(value) * (i * 1000);
     99a:	80 9f       	mul	r24, r16
     99c:	d0 01       	movw	r26, r0
     99e:	81 9f       	mul	r24, r17
     9a0:	b0 0d       	add	r27, r0
     9a2:	90 9f       	mul	r25, r16
     9a4:	b0 0d       	add	r27, r0
     9a6:	11 24       	eor	r1, r1
     9a8:	9f 01       	movw	r18, r30
     9aa:	0e 94 26 19 	call	0x324c	; 0x324c <__usmulhisi3>
     9ae:	46 0e       	add	r4, r22
     9b0:	57 1e       	adc	r5, r23
     9b2:	68 1e       	adc	r6, r24
     9b4:	79 1e       	adc	r7, r25
		   sum += value;
     9b6:	ee 0e       	add	r14, r30
     9b8:	ff 1e       	adc	r15, r31
unsigned long avg=0; // this is for the weighted total, which is long
unsigned int sum=0; // this is for the denominator which is <= 64000

	readCalibrated(sensor_values);

   for(i=0;i<(_numSensors+2);i++) {
     9ba:	2c 81       	ldd	r18, Y+4	; 0x04
     9bc:	2f 5f       	subi	r18, 0xFF	; 255
     9be:	82 2f       	mov	r24, r18
     9c0:	90 e0       	ldi	r25, 0x00	; 0
     9c2:	84 17       	cp	r24, r20
     9c4:	95 07       	cpc	r25, r21
     9c6:	0c f4       	brge	.+2      	; 0x9ca <_ZN9IRSensors11measureLineEPjjb+0xfa>
     9c8:	b6 cf       	rjmp	.-148    	; 0x936 <_ZN9IRSensors11measureLineEPjjb+0x66>
     //  if(value > 800) value=1000;
		   avg += (long)(value) * (i * 1000);
		   sum += value;
	   }
   }
   if(!on_line)
     9ca:	91 10       	cpse	r9, r1
     9cc:	14 c0       	rjmp	.+40     	; 0x9f6 <_ZN9IRSensors11measureLineEPjjb+0x126>
   {
	   // If it last read to the left of center, return 0.
	   if(_lastValue < (_numSensors+1)*1000)
     9ce:	3f ef       	ldi	r19, 0xFF	; 255
     9d0:	23 1a       	sub	r2, r19
     9d2:	33 0a       	sbc	r3, r19
     9d4:	28 ee       	ldi	r18, 0xE8	; 232
     9d6:	33 e0       	ldi	r19, 0x03	; 3
     9d8:	22 9e       	mul	r2, r18
     9da:	c0 01       	movw	r24, r0
     9dc:	23 9e       	mul	r2, r19
     9de:	90 0d       	add	r25, r0
     9e0:	32 9e       	mul	r3, r18
     9e2:	90 0d       	add	r25, r0
     9e4:	11 24       	eor	r1, r1
     9e6:	e9 81       	ldd	r30, Y+1	; 0x01
     9e8:	fa 81       	ldd	r31, Y+2	; 0x02
     9ea:	20 85       	ldd	r18, Z+8	; 0x08
     9ec:	31 85       	ldd	r19, Z+9	; 0x09
     9ee:	28 17       	cp	r18, r24
     9f0:	39 07       	cpc	r19, r25
     9f2:	74 f0       	brlt	.+28     	; 0xa10 <_ZN9IRSensors11measureLineEPjjb+0x140>
     9f4:	1b c0       	rjmp	.+54     	; 0xa2c <_ZN9IRSensors11measureLineEPjjb+0x15c>
	   else
	   return (_numSensors+1)*1000;

   }

	_lastValue = avg/sum;
     9f6:	97 01       	movw	r18, r14
     9f8:	40 e0       	ldi	r20, 0x00	; 0
     9fa:	50 e0       	ldi	r21, 0x00	; 0
     9fc:	c3 01       	movw	r24, r6
     9fe:	b2 01       	movw	r22, r4
     a00:	0e 94 df 18 	call	0x31be	; 0x31be <__udivmodsi4>
     a04:	c9 01       	movw	r24, r18
     a06:	e9 81       	ldd	r30, Y+1	; 0x01
     a08:	fa 81       	ldd	r31, Y+2	; 0x02
     a0a:	31 87       	std	Z+9, r19	; 0x09
     a0c:	20 87       	std	Z+8, r18	; 0x08
	
	return _lastValue;
     a0e:	0e c0       	rjmp	.+28     	; 0xa2c <_ZN9IRSensors11measureLineEPjjb+0x15c>
   }
   if(!on_line)
   {
	   // If it last read to the left of center, return 0.
	   if(_lastValue < (_numSensors+1)*1000)
	   return 0;
     a10:	80 e0       	ldi	r24, 0x00	; 0
     a12:	90 e0       	ldi	r25, 0x00	; 0
     a14:	0b c0       	rjmp	.+22     	; 0xa2c <_ZN9IRSensors11measureLineEPjjb+0x15c>
	  unsigned int value =  (i >= 1 && i < 5) ? sensor_values[i-1] : 0;
     switch(i){
		case 0: value = (bitRead(PINF,1) ? 1000 : 0); break;
		case 5: value = (bitRead(PINC,7) ? 1000 : 0); break;
	 }
	if(white) value = 1000-value;
     a16:	fb 81       	ldd	r31, Y+3	; 0x03
     a18:	f1 11       	cpse	r31, r1
     a1a:	af cf       	rjmp	.-162    	; 0x97a <_ZN9IRSensors11measureLineEPjjb+0xaa>
     a1c:	ce cf       	rjmp	.-100    	; 0x9ba <_ZN9IRSensors11measureLineEPjjb+0xea>
     a1e:	2b 81       	ldd	r18, Y+3	; 0x03
     a20:	21 11       	cpse	r18, r1
     a22:	ae cf       	rjmp	.-164    	; 0x980 <_ZN9IRSensors11measureLineEPjjb+0xb0>
     a24:	f8 01       	movw	r30, r16
	
	if(value > 60) on_line = true;
     a26:	99 24       	eor	r9, r9
     a28:	93 94       	inc	r9
     a2a:	b4 cf       	rjmp	.-152    	; 0x994 <_ZN9IRSensors11measureLineEPjjb+0xc4>
   }

	_lastValue = avg/sum;
	
	return _lastValue;
}
     a2c:	0f 90       	pop	r0
     a2e:	0f 90       	pop	r0
     a30:	0f 90       	pop	r0
     a32:	0f 90       	pop	r0
     a34:	df 91       	pop	r29
     a36:	cf 91       	pop	r28
     a38:	1f 91       	pop	r17
     a3a:	0f 91       	pop	r16
     a3c:	ff 90       	pop	r15
     a3e:	ef 90       	pop	r14
     a40:	df 90       	pop	r13
     a42:	cf 90       	pop	r12
     a44:	bf 90       	pop	r11
     a46:	af 90       	pop	r10
     a48:	9f 90       	pop	r9
     a4a:	8f 90       	pop	r8
     a4c:	7f 90       	pop	r7
     a4e:	6f 90       	pop	r6
     a50:	5f 90       	pop	r5
     a52:	4f 90       	pop	r4
     a54:	3f 90       	pop	r3
     a56:	2f 90       	pop	r2
     a58:	08 95       	ret

00000a5a <_ZN9IRSensors10emittersEnEb>:
	for(i=0;i<_numSensors;i++)
	calibratedMaximum[i] = 0;
	}
}
void IRSensors::emittersEn(bool state){
	if(_emitterPin==255) return;
     a5a:	fc 01       	movw	r30, r24
     a5c:	92 85       	ldd	r25, Z+10	; 0x0a
     a5e:	9f 3f       	cpi	r25, 0xFF	; 255
     a60:	09 f4       	brne	.+2      	; 0xa64 <_ZN9IRSensors10emittersEnEb+0xa>
     a62:	63 c0       	rjmp	.+198    	; 0xb2a <__stack+0x2b>
		io->pinRegister = 0;
		io->portRegister = 0;
		io->ddrRegister = 0;
		io->bitmask = 0;
		
		if (pin < 8)			// pin 0 = PB0, ..., 7 = PB7
     a64:	98 30       	cpi	r25, 0x08	; 8
     a66:	50 f4       	brcc	.+20     	; 0xa7c <_ZN9IRSensors10emittersEnEb+0x22>
		{
			io->pinRegister = (unsigned char*)&PINB;
			io->portRegister = (unsigned char*)&PORTB;
			io->ddrRegister = (unsigned char*)&DDRB;
			io->bitmask = 1 << pin;
     a68:	81 e0       	ldi	r24, 0x01	; 1
     a6a:	01 c0       	rjmp	.+2      	; 0xa6e <_ZN9IRSensors10emittersEnEb+0x14>
     a6c:	88 0f       	add	r24, r24
     a6e:	9a 95       	dec	r25
     a70:	ea f7       	brpl	.-6      	; 0xa6c <_ZN9IRSensors10emittersEnEb+0x12>
		
		if (pin < 8)			// pin 0 = PB0, ..., 7 = PB7
		{
			io->pinRegister = (unsigned char*)&PINB;
			io->portRegister = (unsigned char*)&PORTB;
			io->ddrRegister = (unsigned char*)&DDRB;
     a72:	e4 e2       	ldi	r30, 0x24	; 36
     a74:	f0 e0       	ldi	r31, 0x00	; 0
		io->bitmask = 0;
		
		if (pin < 8)			// pin 0 = PB0, ..., 7 = PB7
		{
			io->pinRegister = (unsigned char*)&PINB;
			io->portRegister = (unsigned char*)&PORTB;
     a76:	a5 e2       	ldi	r26, 0x25	; 37
     a78:	b0 e0       	ldi	r27, 0x00	; 0
     a7a:	43 c0       	rjmp	.+134    	; 0xb02 <__stack+0x3>
			io->ddrRegister = (unsigned char*)&DDRB;
			io->bitmask = 1 << pin;
		}
		else if (pin < 16)
     a7c:	90 31       	cpi	r25, 0x10	; 16
     a7e:	58 f4       	brcc	.+22     	; 0xa96 <_ZN9IRSensors10emittersEnEb+0x3c>
		{
			io->pinRegister = (unsigned char*)&PIND;
			io->portRegister = (unsigned char*)&PORTD;
			io->ddrRegister = (unsigned char*)&DDRD;
			io->bitmask = 1 << (pin - 8);
     a80:	98 50       	subi	r25, 0x08	; 8
     a82:	81 e0       	ldi	r24, 0x01	; 1
     a84:	01 c0       	rjmp	.+2      	; 0xa88 <_ZN9IRSensors10emittersEnEb+0x2e>
     a86:	88 0f       	add	r24, r24
     a88:	9a 95       	dec	r25
     a8a:	ea f7       	brpl	.-6      	; 0xa86 <_ZN9IRSensors10emittersEnEb+0x2c>
		}
		else if (pin < 16)
		{
			io->pinRegister = (unsigned char*)&PIND;
			io->portRegister = (unsigned char*)&PORTD;
			io->ddrRegister = (unsigned char*)&DDRD;
     a8c:	ea e2       	ldi	r30, 0x2A	; 42
     a8e:	f0 e0       	ldi	r31, 0x00	; 0
			io->bitmask = 1 << pin;
		}
		else if (pin < 16)
		{
			io->pinRegister = (unsigned char*)&PIND;
			io->portRegister = (unsigned char*)&PORTD;
     a90:	ab e2       	ldi	r26, 0x2B	; 43
     a92:	b0 e0       	ldi	r27, 0x00	; 0
     a94:	36 c0       	rjmp	.+108    	; 0xb02 <__stack+0x3>
			io->ddrRegister = (unsigned char*)&DDRD;
			io->bitmask = 1 << (pin - 8);
		}
		else if (pin < 22)		// Puerto F
     a96:	96 31       	cpi	r25, 0x16	; 22
     a98:	d0 f4       	brcc	.+52     	; 0xace <_ZN9IRSensors10emittersEnEb+0x74>
		{
			io->pinRegister = (unsigned char*)&PINF;
			io->portRegister = (unsigned char*)&PORTF;
			io->ddrRegister = (unsigned char*)&DDRF;
			io->bitmask = 1 << ((pin - 16) > 1 ? (pin-14) : (pin - 16));
     a9a:	89 2f       	mov	r24, r25
     a9c:	90 e0       	ldi	r25, 0x00	; 0
     a9e:	9c 01       	movw	r18, r24
     aa0:	20 51       	subi	r18, 0x10	; 16
     aa2:	31 09       	sbc	r19, r1
     aa4:	22 30       	cpi	r18, 0x02	; 2
     aa6:	31 05       	cpc	r19, r1
     aa8:	44 f0       	brlt	.+16     	; 0xaba <_ZN9IRSensors10emittersEnEb+0x60>
     aaa:	2e 5f       	subi	r18, 0xFE	; 254
     aac:	3f 4f       	sbci	r19, 0xFF	; 255
     aae:	81 e0       	ldi	r24, 0x01	; 1
     ab0:	01 c0       	rjmp	.+2      	; 0xab4 <_ZN9IRSensors10emittersEnEb+0x5a>
     ab2:	88 0f       	add	r24, r24
     ab4:	2a 95       	dec	r18
     ab6:	ea f7       	brpl	.-6      	; 0xab2 <_ZN9IRSensors10emittersEnEb+0x58>
     ab8:	05 c0       	rjmp	.+10     	; 0xac4 <_ZN9IRSensors10emittersEnEb+0x6a>
     aba:	81 e0       	ldi	r24, 0x01	; 1
     abc:	01 c0       	rjmp	.+2      	; 0xac0 <_ZN9IRSensors10emittersEnEb+0x66>
     abe:	88 0f       	add	r24, r24
     ac0:	2a 95       	dec	r18
     ac2:	ea f7       	brpl	.-6      	; 0xabe <_ZN9IRSensors10emittersEnEb+0x64>
		}
		else if (pin < 22)		// Puerto F
		{
			io->pinRegister = (unsigned char*)&PINF;
			io->portRegister = (unsigned char*)&PORTF;
			io->ddrRegister = (unsigned char*)&DDRF;
     ac4:	e0 e3       	ldi	r30, 0x30	; 48
     ac6:	f0 e0       	ldi	r31, 0x00	; 0
			io->bitmask = 1 << (pin - 8);
		}
		else if (pin < 22)		// Puerto F
		{
			io->pinRegister = (unsigned char*)&PINF;
			io->portRegister = (unsigned char*)&PORTF;
     ac8:	a1 e3       	ldi	r26, 0x31	; 49
     aca:	b0 e0       	ldi	r27, 0x00	; 0
     acc:	1a c0       	rjmp	.+52     	; 0xb02 <__stack+0x3>
			io->ddrRegister = (unsigned char*)&DDRF;
			io->bitmask = 1 << ((pin - 16) > 1 ? (pin-14) : (pin - 16));
			}else if (pin < 24){
     ace:	98 31       	cpi	r25, 0x18	; 24
     ad0:	58 f4       	brcc	.+22     	; 0xae8 <_ZN9IRSensors10emittersEnEb+0x8e>
			io->pinRegister = (unsigned char*)&PINC;
			io->portRegister = (unsigned char*)&PORTC;
			io->ddrRegister = (unsigned char*)&DDRC;
			io->bitmask = 1 << (pin-16);
     ad2:	90 51       	subi	r25, 0x10	; 16
     ad4:	81 e0       	ldi	r24, 0x01	; 1
     ad6:	01 c0       	rjmp	.+2      	; 0xada <_ZN9IRSensors10emittersEnEb+0x80>
     ad8:	88 0f       	add	r24, r24
     ada:	9a 95       	dec	r25
     adc:	ea f7       	brpl	.-6      	; 0xad8 <_ZN9IRSensors10emittersEnEb+0x7e>
			io->ddrRegister = (unsigned char*)&DDRF;
			io->bitmask = 1 << ((pin - 16) > 1 ? (pin-14) : (pin - 16));
			}else if (pin < 24){
			io->pinRegister = (unsigned char*)&PINC;
			io->portRegister = (unsigned char*)&PORTC;
			io->ddrRegister = (unsigned char*)&DDRC;
     ade:	e7 e2       	ldi	r30, 0x27	; 39
     ae0:	f0 e0       	ldi	r31, 0x00	; 0
			io->portRegister = (unsigned char*)&PORTF;
			io->ddrRegister = (unsigned char*)&DDRF;
			io->bitmask = 1 << ((pin - 16) > 1 ? (pin-14) : (pin - 16));
			}else if (pin < 24){
			io->pinRegister = (unsigned char*)&PINC;
			io->portRegister = (unsigned char*)&PORTC;
     ae2:	a8 e2       	ldi	r26, 0x28	; 40
     ae4:	b0 e0       	ldi	r27, 0x00	; 0
     ae6:	0d c0       	rjmp	.+26     	; 0xb02 <__stack+0x3>
			io->ddrRegister = (unsigned char*)&DDRC;
			io->bitmask = 1 << (pin-16);
			}else if (pin==24){
     ae8:	98 31       	cpi	r25, 0x18	; 24
     aea:	31 f4       	brne	.+12     	; 0xaf8 <_ZN9IRSensors10emittersEnEb+0x9e>
			io->pinRegister = (unsigned char*)&PINE;
			io->portRegister = (unsigned char*)&PORTE;
			io->ddrRegister = (unsigned char*)&DDRE;
			io->bitmask = 1 << 6;
     aec:	80 e4       	ldi	r24, 0x40	; 64
			io->ddrRegister = (unsigned char*)&DDRC;
			io->bitmask = 1 << (pin-16);
			}else if (pin==24){
			io->pinRegister = (unsigned char*)&PINE;
			io->portRegister = (unsigned char*)&PORTE;
			io->ddrRegister = (unsigned char*)&DDRE;
     aee:	ed e2       	ldi	r30, 0x2D	; 45
     af0:	f0 e0       	ldi	r31, 0x00	; 0
			io->portRegister = (unsigned char*)&PORTC;
			io->ddrRegister = (unsigned char*)&DDRC;
			io->bitmask = 1 << (pin-16);
			}else if (pin==24){
			io->pinRegister = (unsigned char*)&PINE;
			io->portRegister = (unsigned char*)&PORTE;
     af2:	ae e2       	ldi	r26, 0x2E	; 46
     af4:	b0 e0       	ldi	r27, 0x00	; 0
     af6:	05 c0       	rjmp	.+10     	; 0xb02 <__stack+0x3>
	inline static void getIORegisters(struct IOStruct* io, unsigned char pin)
	{
		io->pinRegister = 0;
		io->portRegister = 0;
		io->ddrRegister = 0;
		io->bitmask = 0;
     af8:	80 e0       	ldi	r24, 0x00	; 0
	// 1 in the position of the specified pin and 0s everywhere else.
	inline static void getIORegisters(struct IOStruct* io, unsigned char pin)
	{
		io->pinRegister = 0;
		io->portRegister = 0;
		io->ddrRegister = 0;
     afa:	e0 e0       	ldi	r30, 0x00	; 0
     afc:	f0 e0       	ldi	r31, 0x00	; 0
	// with the specified pin (DDR, PORT, and PIN) along with a bitmask with a
	// 1 in the position of the specified pin and 0s everywhere else.
	inline static void getIORegisters(struct IOStruct* io, unsigned char pin)
	{
		io->pinRegister = 0;
		io->portRegister = 0;
     afe:	a0 e0       	ldi	r26, 0x00	; 0
     b00:	b0 e0       	ldi	r27, 0x00	; 0
	// setting it as high-impedance (val = 0) or enabling the internal pull-up (val = 1).  If the pin is an
	// output, this lets you choose between driving low (val = 0) and driving high (val = 1).
	// NOTE: if val is 0xFF (255), this method will toggle the PORT register pin(s).
	inline static void setOutputValue(struct IOStruct* ioPin, unsigned char val)
	{
		if (val == 0xFF)
     b02:	6f 3f       	cpi	r22, 0xFF	; 255
     b04:	21 f4       	brne	.+8      	; 0xb0e <__stack+0xf>
		*(ioPin->portRegister) ^= ioPin->bitmask;
     b06:	9c 91       	ld	r25, X
     b08:	98 27       	eor	r25, r24
     b0a:	9c 93       	st	X, r25
     b0c:	0b c0       	rjmp	.+22     	; 0xb24 <__stack+0x25>
		else if (val)
     b0e:	66 23       	and	r22, r22
     b10:	21 f0       	breq	.+8      	; 0xb1a <__stack+0x1b>
		*(ioPin->portRegister) |= ioPin->bitmask;
     b12:	9c 91       	ld	r25, X
     b14:	98 2b       	or	r25, r24
     b16:	9c 93       	st	X, r25
     b18:	05 c0       	rjmp	.+10     	; 0xb24 <__stack+0x25>
		else
		*(ioPin->portRegister) &= ~ioPin->bitmask;
     b1a:	9c 91       	ld	r25, X
     b1c:	28 2f       	mov	r18, r24
     b1e:	20 95       	com	r18
     b20:	92 23       	and	r25, r18
     b22:	9c 93       	st	X, r25
	// low-level method for setting the data direction (i.e. input or output) of an pin or set of pins
	// described by an IOStruct pointer.
	inline static void setDataDirection(struct IOStruct* ioPin, unsigned char val)
	{
		if (val)
		*(ioPin->ddrRegister) |= ioPin->bitmask;
     b24:	90 81       	ld	r25, Z
     b26:	89 2b       	or	r24, r25
     b28:	80 83       	st	Z, r24
     b2a:	08 95       	ret

00000b2c <_ZN9IRSensors15saveCalibrationEv>:
	Digital::setOutput(_emitterPin,state);
}
void IRSensors::saveCalibration()
{
     b2c:	5f 92       	push	r5
     b2e:	6f 92       	push	r6
     b30:	7f 92       	push	r7
     b32:	8f 92       	push	r8
     b34:	9f 92       	push	r9
     b36:	af 92       	push	r10
     b38:	bf 92       	push	r11
     b3a:	cf 92       	push	r12
     b3c:	df 92       	push	r13
     b3e:	ef 92       	push	r14
     b40:	ff 92       	push	r15
     b42:	0f 93       	push	r16
     b44:	1f 93       	push	r17
     b46:	cf 93       	push	r28
     b48:	df 93       	push	r29
	int i=0;
	if(calibratedMinimum){
     b4a:	fc 01       	movw	r30, r24
     b4c:	22 81       	ldd	r18, Z+2	; 0x02
     b4e:	33 81       	ldd	r19, Z+3	; 0x03
     b50:	23 2b       	or	r18, r19
     b52:	09 f4       	brne	.+2      	; 0xb56 <_ZN9IRSensors15saveCalibrationEv+0x2a>
     b54:	4e c0       	rjmp	.+156    	; 0xbf2 <_ZN9IRSensors15saveCalibrationEv+0xc6>
		for (i=0;i<_numSensors;i++)
     b56:	26 81       	ldd	r18, Z+6	; 0x06
     b58:	22 23       	and	r18, r18
     b5a:	09 f4       	brne	.+2      	; 0xb5e <_ZN9IRSensors15saveCalibrationEv+0x32>
     b5c:	4a c0       	rjmp	.+148    	; 0xbf2 <_ZN9IRSensors15saveCalibrationEv+0xc6>
     b5e:	4c 01       	movw	r8, r24
     b60:	68 94       	set
     b62:	ee 24       	eor	r14, r14
     b64:	e1 f8       	bld	r14, 1
     b66:	f1 2c       	mov	r15, r1
     b68:	c1 2c       	mov	r12, r1
     b6a:	d1 2c       	mov	r13, r1
     b6c:	36 01       	movw	r6, r12
     b6e:	66 0c       	add	r6, r6
     b70:	77 1c       	adc	r7, r7
     b72:	87 01       	movw	r16, r14
     b74:	02 50       	subi	r16, 0x02	; 2
     b76:	11 09       	sbc	r17, r1
		{
			EEPROM.put(i*4,calibratedMaximum[i]);
     b78:	f4 01       	movw	r30, r8
     b7a:	a0 80       	ld	r10, Z
     b7c:	b1 80       	ldd	r11, Z+1	; 0x01
     b7e:	a6 0c       	add	r10, r6
     b80:	b7 1c       	adc	r11, r7
     b82:	e7 01       	movw	r28, r14
    }
    
    template< typename T > const T &put( int idx, const T &t ){
        EEPtr e = idx;
        const uint8_t *ptr = (const uint8_t*) &t;
        for( int count = sizeof(T) ; count ; --count, ++e )  (*e).update( *ptr++ );
     b84:	f5 01       	movw	r30, r10
     b86:	51 90       	ld	r5, Z+
     b88:	5f 01       	movw	r10, r30

    EERef( const int index )
        : index( index )                 {}
    
    //Access/read members.
    uint8_t operator*() const            { return eeprom_read_byte( (uint8_t*) index ); }
     b8a:	c8 01       	movw	r24, r16
     b8c:	0e 94 bf 1c 	call	0x397e	; 0x397e <eeprom_read_byte>
    EERef &operator &=( uint8_t in )     { return *this = **this & in; }
    EERef &operator |=( uint8_t in )     { return *this = **this | in; }
    EERef &operator <<=( uint8_t in )    { return *this = **this << in; }
    EERef &operator >>=( uint8_t in )    { return *this = **this >> in; }
    
    EERef &update( uint8_t in )          { return  in != *this ? *this = in : *this; }
     b90:	58 16       	cp	r5, r24
     b92:	21 f0       	breq	.+8      	; 0xb9c <_ZN9IRSensors15saveCalibrationEv+0x70>
    uint8_t operator*() const            { return eeprom_read_byte( (uint8_t*) index ); }
    operator const uint8_t() const       { return **this; }
    
    //Assignment/write members.
    EERef &operator=( const EERef &ref ) { return *this = *ref; }
    EERef &operator=( uint8_t in )       { return eeprom_write_byte( (uint8_t*) index, in ), *this;  }
     b94:	65 2d       	mov	r22, r5
     b96:	c8 01       	movw	r24, r16
     b98:	0e 94 c7 1c 	call	0x398e	; 0x398e <eeprom_write_byte>
    //Iterator functionality.
    bool operator!=( const EEPtr &ptr ) { return index != ptr.index; }
    EERef operator*()                   { return index; }
    
    /** Prefix & Postfix increment/decrement **/
    EEPtr& operator++()                 { return ++index, *this; }
     b9c:	0f 5f       	subi	r16, 0xFF	; 255
     b9e:	1f 4f       	sbci	r17, 0xFF	; 255
    }
    
    template< typename T > const T &put( int idx, const T &t ){
        EEPtr e = idx;
        const uint8_t *ptr = (const uint8_t*) &t;
        for( int count = sizeof(T) ; count ; --count, ++e )  (*e).update( *ptr++ );
     ba0:	0c 17       	cp	r16, r28
     ba2:	1d 07       	cpc	r17, r29
     ba4:	79 f7       	brne	.-34     	; 0xb84 <_ZN9IRSensors15saveCalibrationEv+0x58>
			EEPROM.put((i*4)+2,calibratedMinimum[i]);
     ba6:	f4 01       	movw	r30, r8
     ba8:	02 81       	ldd	r16, Z+2	; 0x02
     baa:	13 81       	ldd	r17, Z+3	; 0x03
     bac:	06 0d       	add	r16, r6
     bae:	17 1d       	adc	r17, r7
     bb0:	57 01       	movw	r10, r14
     bb2:	f2 e0       	ldi	r31, 0x02	; 2
     bb4:	af 0e       	add	r10, r31
     bb6:	b1 1c       	adc	r11, r1
     bb8:	f8 01       	movw	r30, r16
     bba:	71 90       	ld	r7, Z+
     bbc:	8f 01       	movw	r16, r30

    EERef( const int index )
        : index( index )                 {}
    
    //Access/read members.
    uint8_t operator*() const            { return eeprom_read_byte( (uint8_t*) index ); }
     bbe:	ce 01       	movw	r24, r28
     bc0:	0e 94 bf 1c 	call	0x397e	; 0x397e <eeprom_read_byte>
    EERef &operator &=( uint8_t in )     { return *this = **this & in; }
    EERef &operator |=( uint8_t in )     { return *this = **this | in; }
    EERef &operator <<=( uint8_t in )    { return *this = **this << in; }
    EERef &operator >>=( uint8_t in )    { return *this = **this >> in; }
    
    EERef &update( uint8_t in )          { return  in != *this ? *this = in : *this; }
     bc4:	78 16       	cp	r7, r24
     bc6:	21 f0       	breq	.+8      	; 0xbd0 <_ZN9IRSensors15saveCalibrationEv+0xa4>
    uint8_t operator*() const            { return eeprom_read_byte( (uint8_t*) index ); }
    operator const uint8_t() const       { return **this; }
    
    //Assignment/write members.
    EERef &operator=( const EERef &ref ) { return *this = *ref; }
    EERef &operator=( uint8_t in )       { return eeprom_write_byte( (uint8_t*) index, in ), *this;  }
     bc8:	67 2d       	mov	r22, r7
     bca:	ce 01       	movw	r24, r28
     bcc:	0e 94 c7 1c 	call	0x398e	; 0x398e <eeprom_write_byte>
    //Iterator functionality.
    bool operator!=( const EEPtr &ptr ) { return index != ptr.index; }
    EERef operator*()                   { return index; }
    
    /** Prefix & Postfix increment/decrement **/
    EEPtr& operator++()                 { return ++index, *this; }
     bd0:	21 96       	adiw	r28, 0x01	; 1
    }
    
    template< typename T > const T &put( int idx, const T &t ){
        EEPtr e = idx;
        const uint8_t *ptr = (const uint8_t*) &t;
        for( int count = sizeof(T) ; count ; --count, ++e )  (*e).update( *ptr++ );
     bd2:	ac 16       	cp	r10, r28
     bd4:	bd 06       	cpc	r11, r29
     bd6:	81 f7       	brne	.-32     	; 0xbb8 <_ZN9IRSensors15saveCalibrationEv+0x8c>
}
void IRSensors::saveCalibration()
{
	int i=0;
	if(calibratedMinimum){
		for (i=0;i<_numSensors;i++)
     bd8:	ff ef       	ldi	r31, 0xFF	; 255
     bda:	cf 1a       	sub	r12, r31
     bdc:	df 0a       	sbc	r13, r31
     bde:	84 e0       	ldi	r24, 0x04	; 4
     be0:	e8 0e       	add	r14, r24
     be2:	f1 1c       	adc	r15, r1
     be4:	f4 01       	movw	r30, r8
     be6:	86 81       	ldd	r24, Z+6	; 0x06
     be8:	90 e0       	ldi	r25, 0x00	; 0
     bea:	c8 16       	cp	r12, r24
     bec:	d9 06       	cpc	r13, r25
     bee:	0c f4       	brge	.+2      	; 0xbf2 <_ZN9IRSensors15saveCalibrationEv+0xc6>
     bf0:	bd cf       	rjmp	.-134    	; 0xb6c <_ZN9IRSensors15saveCalibrationEv+0x40>
		{
			EEPROM.put(i*4,calibratedMaximum[i]);
			EEPROM.put((i*4)+2,calibratedMinimum[i]);
		}	
	}
}
     bf2:	df 91       	pop	r29
     bf4:	cf 91       	pop	r28
     bf6:	1f 91       	pop	r17
     bf8:	0f 91       	pop	r16
     bfa:	ff 90       	pop	r15
     bfc:	ef 90       	pop	r14
     bfe:	df 90       	pop	r13
     c00:	cf 90       	pop	r12
     c02:	bf 90       	pop	r11
     c04:	af 90       	pop	r10
     c06:	9f 90       	pop	r9
     c08:	8f 90       	pop	r8
     c0a:	7f 90       	pop	r7
     c0c:	6f 90       	pop	r6
     c0e:	5f 90       	pop	r5
     c10:	08 95       	ret

00000c12 <_ZN9IRSensors18restoreCalibrationEv>:

void IRSensors::restoreCalibration()
{
     c12:	af 92       	push	r10
     c14:	bf 92       	push	r11
     c16:	cf 92       	push	r12
     c18:	df 92       	push	r13
     c1a:	ef 92       	push	r14
     c1c:	ff 92       	push	r15
     c1e:	0f 93       	push	r16
     c20:	1f 93       	push	r17
     c22:	cf 93       	push	r28
     c24:	df 93       	push	r29
     c26:	6c 01       	movw	r12, r24
	int i;
	if(calibratedMaximum == 0)
     c28:	dc 01       	movw	r26, r24
     c2a:	8d 91       	ld	r24, X+
     c2c:	9c 91       	ld	r25, X
     c2e:	11 97       	sbiw	r26, 0x01	; 1
     c30:	89 2b       	or	r24, r25
     c32:	29 f5       	brne	.+74     	; 0xc7e <_ZN9IRSensors18restoreCalibrationEv+0x6c>
	{
		calibratedMaximum = (unsigned int*)malloc(sizeof(unsigned int)*_numSensors);
     c34:	16 96       	adiw	r26, 0x06	; 6
     c36:	8c 91       	ld	r24, X
     c38:	90 e0       	ldi	r25, 0x00	; 0
     c3a:	88 0f       	add	r24, r24
     c3c:	99 1f       	adc	r25, r25
     c3e:	0e 94 7e 19 	call	0x32fc	; 0x32fc <malloc>
     c42:	f6 01       	movw	r30, r12
     c44:	91 83       	std	Z+1, r25	; 0x01
     c46:	80 83       	st	Z, r24

		// If the malloc failed, don't continue.
		if(calibratedMaximum == 0)
     c48:	89 2b       	or	r24, r25
     c4a:	09 f4       	brne	.+2      	; 0xc4e <_ZN9IRSensors18restoreCalibrationEv+0x3c>
     c4c:	8a c0       	rjmp	.+276    	; 0xd62 <_ZN9IRSensors18restoreCalibrationEv+0x150>
		return;

		// Initialize the max and min calibrated values to values that
		// will cause the first reading to update them.

		for(i=0;i<_numSensors;i++)
     c4e:	86 81       	ldd	r24, Z+6	; 0x06
     c50:	88 23       	and	r24, r24
     c52:	09 f4       	brne	.+2      	; 0xc56 <_ZN9IRSensors18restoreCalibrationEv+0x44>
     c54:	81 c0       	rjmp	.+258    	; 0xd58 <_ZN9IRSensors18restoreCalibrationEv+0x146>
     c56:	80 e0       	ldi	r24, 0x00	; 0
     c58:	90 e0       	ldi	r25, 0x00	; 0
		calibratedMaximum[i] = 0;
     c5a:	9c 01       	movw	r18, r24
     c5c:	22 0f       	add	r18, r18
     c5e:	33 1f       	adc	r19, r19
     c60:	d6 01       	movw	r26, r12
     c62:	ed 91       	ld	r30, X+
     c64:	fc 91       	ld	r31, X
     c66:	11 97       	sbiw	r26, 0x01	; 1
     c68:	e2 0f       	add	r30, r18
     c6a:	f3 1f       	adc	r31, r19
     c6c:	11 82       	std	Z+1, r1	; 0x01
     c6e:	10 82       	st	Z, r1
		return;

		// Initialize the max and min calibrated values to values that
		// will cause the first reading to update them.

		for(i=0;i<_numSensors;i++)
     c70:	01 96       	adiw	r24, 0x01	; 1
     c72:	16 96       	adiw	r26, 0x06	; 6
     c74:	2c 91       	ld	r18, X
     c76:	30 e0       	ldi	r19, 0x00	; 0
     c78:	82 17       	cp	r24, r18
     c7a:	93 07       	cpc	r25, r19
     c7c:	74 f3       	brlt	.-36     	; 0xc5a <_ZN9IRSensors18restoreCalibrationEv+0x48>
		calibratedMaximum[i] = 0;
	}
	if(calibratedMinimum == 0)
     c7e:	f6 01       	movw	r30, r12
     c80:	82 81       	ldd	r24, Z+2	; 0x02
     c82:	93 81       	ldd	r25, Z+3	; 0x03
     c84:	89 2b       	or	r24, r25
     c86:	31 f0       	breq	.+12     	; 0xc94 <_ZN9IRSensors18restoreCalibrationEv+0x82>

		for(i=0;i<_numSensors;i++)
		calibratedMinimum[i] = 1023;
	}

	for (i=0;i<_numSensors;i++)
     c88:	d6 01       	movw	r26, r12
     c8a:	16 96       	adiw	r26, 0x06	; 6
     c8c:	8c 91       	ld	r24, X
     c8e:	81 11       	cpse	r24, r1
     c90:	2d c0       	rjmp	.+90     	; 0xcec <_ZN9IRSensors18restoreCalibrationEv+0xda>
     c92:	67 c0       	rjmp	.+206    	; 0xd62 <_ZN9IRSensors18restoreCalibrationEv+0x150>
		for(i=0;i<_numSensors;i++)
		calibratedMaximum[i] = 0;
	}
	if(calibratedMinimum == 0)
	{
		calibratedMinimum = (unsigned int*)malloc(sizeof(unsigned int)*_numSensors);
     c94:	f6 01       	movw	r30, r12
     c96:	86 81       	ldd	r24, Z+6	; 0x06
     c98:	90 e0       	ldi	r25, 0x00	; 0
     c9a:	88 0f       	add	r24, r24
     c9c:	99 1f       	adc	r25, r25
     c9e:	0e 94 7e 19 	call	0x32fc	; 0x32fc <malloc>
     ca2:	d6 01       	movw	r26, r12
     ca4:	13 96       	adiw	r26, 0x03	; 3
     ca6:	9c 93       	st	X, r25
     ca8:	8e 93       	st	-X, r24
     caa:	12 97       	sbiw	r26, 0x02	; 2

		// If the malloc failed, don't continue.
		if(calibratedMinimum == 0)
     cac:	89 2b       	or	r24, r25
     cae:	09 f4       	brne	.+2      	; 0xcb2 <_ZN9IRSensors18restoreCalibrationEv+0xa0>
     cb0:	58 c0       	rjmp	.+176    	; 0xd62 <_ZN9IRSensors18restoreCalibrationEv+0x150>
		return;

		for(i=0;i<_numSensors;i++)
     cb2:	16 96       	adiw	r26, 0x06	; 6
     cb4:	8c 91       	ld	r24, X
     cb6:	88 23       	and	r24, r24
     cb8:	09 f4       	brne	.+2      	; 0xcbc <_ZN9IRSensors18restoreCalibrationEv+0xaa>
     cba:	53 c0       	rjmp	.+166    	; 0xd62 <_ZN9IRSensors18restoreCalibrationEv+0x150>
     cbc:	80 e0       	ldi	r24, 0x00	; 0
     cbe:	90 e0       	ldi	r25, 0x00	; 0
		calibratedMinimum[i] = 1023;
     cc0:	4f ef       	ldi	r20, 0xFF	; 255
     cc2:	53 e0       	ldi	r21, 0x03	; 3
     cc4:	9c 01       	movw	r18, r24
     cc6:	22 0f       	add	r18, r18
     cc8:	33 1f       	adc	r19, r19
     cca:	d6 01       	movw	r26, r12
     ccc:	12 96       	adiw	r26, 0x02	; 2
     cce:	ed 91       	ld	r30, X+
     cd0:	fc 91       	ld	r31, X
     cd2:	13 97       	sbiw	r26, 0x03	; 3
     cd4:	e2 0f       	add	r30, r18
     cd6:	f3 1f       	adc	r31, r19
     cd8:	51 83       	std	Z+1, r21	; 0x01
     cda:	40 83       	st	Z, r20

		// If the malloc failed, don't continue.
		if(calibratedMinimum == 0)
		return;

		for(i=0;i<_numSensors;i++)
     cdc:	01 96       	adiw	r24, 0x01	; 1
     cde:	16 96       	adiw	r26, 0x06	; 6
     ce0:	2c 91       	ld	r18, X
     ce2:	30 e0       	ldi	r19, 0x00	; 0
     ce4:	82 17       	cp	r24, r18
     ce6:	93 07       	cpc	r25, r19
     ce8:	6c f3       	brlt	.-38     	; 0xcc4 <_ZN9IRSensors18restoreCalibrationEv+0xb2>
     cea:	ce cf       	rjmp	.-100    	; 0xc88 <_ZN9IRSensors18restoreCalibrationEv+0x76>
		calibratedMinimum[i] = 1023;
	}

	for (i=0;i<_numSensors;i++)
     cec:	c0 e0       	ldi	r28, 0x00	; 0
     cee:	d0 e0       	ldi	r29, 0x00	; 0
     cf0:	a1 2c       	mov	r10, r1
     cf2:	b1 2c       	mov	r11, r1
     cf4:	85 01       	movw	r16, r10
     cf6:	00 0f       	add	r16, r16
     cf8:	11 1f       	adc	r17, r17
	{
	EEPROM.get(i*4,calibratedMaximum[i]);
     cfa:	f6 01       	movw	r30, r12
     cfc:	e0 80       	ld	r14, Z
     cfe:	f1 80       	ldd	r15, Z+1	; 0x01
     d00:	e0 0e       	add	r14, r16
     d02:	f1 1e       	adc	r15, r17

    EERef( const int index )
        : index( index )                 {}
    
    //Access/read members.
    uint8_t operator*() const            { return eeprom_read_byte( (uint8_t*) index ); }
     d04:	ce 01       	movw	r24, r28
     d06:	0e 94 bf 1c 	call	0x397e	; 0x397e <eeprom_read_byte>
    
    //Functionality to 'get' and 'put' objects to and from EEPROM.
    template< typename T > T &get( int idx, T &t ){
        EEPtr e = idx;
        uint8_t *ptr = (uint8_t*) &t;
        for( int count = sizeof(T) ; count ; --count, ++e )  *ptr++ = *e;
     d0a:	d7 01       	movw	r26, r14
     d0c:	8c 93       	st	X, r24

    EERef( const int index )
        : index( index )                 {}
    
    //Access/read members.
    uint8_t operator*() const            { return eeprom_read_byte( (uint8_t*) index ); }
     d0e:	ce 01       	movw	r24, r28
     d10:	01 96       	adiw	r24, 0x01	; 1
     d12:	0e 94 bf 1c 	call	0x397e	; 0x397e <eeprom_read_byte>
    
    //Functionality to 'get' and 'put' objects to and from EEPROM.
    template< typename T > T &get( int idx, T &t ){
        EEPtr e = idx;
        uint8_t *ptr = (uint8_t*) &t;
        for( int count = sizeof(T) ; count ; --count, ++e )  *ptr++ = *e;
     d16:	f7 01       	movw	r30, r14
     d18:	81 83       	std	Z+1, r24	; 0x01
	EEPROM.get((i*4)+2,calibratedMinimum[i]);
     d1a:	d6 01       	movw	r26, r12
     d1c:	12 96       	adiw	r26, 0x02	; 2
     d1e:	8d 91       	ld	r24, X+
     d20:	9c 91       	ld	r25, X
     d22:	13 97       	sbiw	r26, 0x03	; 3
     d24:	08 0f       	add	r16, r24
     d26:	19 1f       	adc	r17, r25

    EERef( const int index )
        : index( index )                 {}
    
    //Access/read members.
    uint8_t operator*() const            { return eeprom_read_byte( (uint8_t*) index ); }
     d28:	ce 01       	movw	r24, r28
     d2a:	02 96       	adiw	r24, 0x02	; 2
     d2c:	0e 94 bf 1c 	call	0x397e	; 0x397e <eeprom_read_byte>
    
    //Functionality to 'get' and 'put' objects to and from EEPROM.
    template< typename T > T &get( int idx, T &t ){
        EEPtr e = idx;
        uint8_t *ptr = (uint8_t*) &t;
        for( int count = sizeof(T) ; count ; --count, ++e )  *ptr++ = *e;
     d30:	f8 01       	movw	r30, r16
     d32:	80 83       	st	Z, r24

    EERef( const int index )
        : index( index )                 {}
    
    //Access/read members.
    uint8_t operator*() const            { return eeprom_read_byte( (uint8_t*) index ); }
     d34:	ce 01       	movw	r24, r28
     d36:	03 96       	adiw	r24, 0x03	; 3
     d38:	0e 94 bf 1c 	call	0x397e	; 0x397e <eeprom_read_byte>
    
    //Functionality to 'get' and 'put' objects to and from EEPROM.
    template< typename T > T &get( int idx, T &t ){
        EEPtr e = idx;
        uint8_t *ptr = (uint8_t*) &t;
        for( int count = sizeof(T) ; count ; --count, ++e )  *ptr++ = *e;
     d3c:	d8 01       	movw	r26, r16
     d3e:	11 96       	adiw	r26, 0x01	; 1
     d40:	8c 93       	st	X, r24

		for(i=0;i<_numSensors;i++)
		calibratedMinimum[i] = 1023;
	}

	for (i=0;i<_numSensors;i++)
     d42:	bf ef       	ldi	r27, 0xFF	; 255
     d44:	ab 1a       	sub	r10, r27
     d46:	bb 0a       	sbc	r11, r27
     d48:	24 96       	adiw	r28, 0x04	; 4
     d4a:	f6 01       	movw	r30, r12
     d4c:	86 81       	ldd	r24, Z+6	; 0x06
     d4e:	90 e0       	ldi	r25, 0x00	; 0
     d50:	a8 16       	cp	r10, r24
     d52:	b9 06       	cpc	r11, r25
     d54:	7c f2       	brlt	.-98     	; 0xcf4 <_ZN9IRSensors18restoreCalibrationEv+0xe2>
     d56:	05 c0       	rjmp	.+10     	; 0xd62 <_ZN9IRSensors18restoreCalibrationEv+0x150>
		// will cause the first reading to update them.

		for(i=0;i<_numSensors;i++)
		calibratedMaximum[i] = 0;
	}
	if(calibratedMinimum == 0)
     d58:	82 81       	ldd	r24, Z+2	; 0x02
     d5a:	93 81       	ldd	r25, Z+3	; 0x03
     d5c:	89 2b       	or	r24, r25
     d5e:	09 f4       	brne	.+2      	; 0xd62 <_ZN9IRSensors18restoreCalibrationEv+0x150>
     d60:	99 cf       	rjmp	.-206    	; 0xc94 <_ZN9IRSensors18restoreCalibrationEv+0x82>
	for (i=0;i<_numSensors;i++)
	{
	EEPROM.get(i*4,calibratedMaximum[i]);
	EEPROM.get((i*4)+2,calibratedMinimum[i]);
	}
}
     d62:	df 91       	pop	r29
     d64:	cf 91       	pop	r28
     d66:	1f 91       	pop	r17
     d68:	0f 91       	pop	r16
     d6a:	ff 90       	pop	r15
     d6c:	ef 90       	pop	r14
     d6e:	df 90       	pop	r13
     d70:	cf 90       	pop	r12
     d72:	bf 90       	pop	r11
     d74:	af 90       	pop	r10
     d76:	08 95       	ret

00000d78 <_ZN9IRSensorsD1Ev>:

extern "C" void __cxa_pure_virtual() { while (1); }


// default destructor
IRSensors::~IRSensors()
     d78:	cf 93       	push	r28
     d7a:	df 93       	push	r29
     d7c:	ec 01       	movw	r28, r24
{
	free(calibratedMinimum);
     d7e:	8a 81       	ldd	r24, Y+2	; 0x02
     d80:	9b 81       	ldd	r25, Y+3	; 0x03
     d82:	0e 94 13 1a 	call	0x3426	; 0x3426 <free>
	free(_pins);
     d86:	8c 81       	ldd	r24, Y+4	; 0x04
     d88:	9d 81       	ldd	r25, Y+5	; 0x05
     d8a:	0e 94 13 1a 	call	0x3426	; 0x3426 <free>
	free(calibratedMaximum);
     d8e:	88 81       	ld	r24, Y
     d90:	99 81       	ldd	r25, Y+1	; 0x01
     d92:	0e 94 13 1a 	call	0x3426	; 0x3426 <free>
} //~IRSensors
     d96:	df 91       	pop	r29
     d98:	cf 91       	pop	r28
     d9a:	08 95       	ret

00000d9c <_Z8initUARTm>:
#define DEC 10
#define UBBRValue(x) (lrint((( F_CPU / ( x * 16UL))) - 1)) 
static char string[BUFFER_SIZE];

void initUART(uint32_t BAUD)
{
     d9c:	0f 93       	push	r16
     d9e:	1f 93       	push	r17
	
	UBRR1H = (unsigned char) (UBBRValue(BAUD) >> 8 );
     da0:	dc 01       	movw	r26, r24
     da2:	cb 01       	movw	r24, r22
     da4:	88 0f       	add	r24, r24
     da6:	99 1f       	adc	r25, r25
     da8:	aa 1f       	adc	r26, r26
     daa:	bb 1f       	adc	r27, r27
     dac:	88 0f       	add	r24, r24
     dae:	99 1f       	adc	r25, r25
     db0:	aa 1f       	adc	r26, r26
     db2:	bb 1f       	adc	r27, r27
     db4:	9c 01       	movw	r18, r24
     db6:	ad 01       	movw	r20, r26
     db8:	22 0f       	add	r18, r18
     dba:	33 1f       	adc	r19, r19
     dbc:	44 1f       	adc	r20, r20
     dbe:	55 1f       	adc	r21, r21
     dc0:	22 0f       	add	r18, r18
     dc2:	33 1f       	adc	r19, r19
     dc4:	44 1f       	adc	r20, r20
     dc6:	55 1f       	adc	r21, r21
     dc8:	60 e0       	ldi	r22, 0x00	; 0
     dca:	7b e1       	ldi	r23, 0x1B	; 27
     dcc:	87 eb       	ldi	r24, 0xB7	; 183
     dce:	90 e0       	ldi	r25, 0x00	; 0
     dd0:	0e 94 df 18 	call	0x31be	; 0x31be <__udivmodsi4>
     dd4:	ca 01       	movw	r24, r20
     dd6:	b9 01       	movw	r22, r18
     dd8:	61 50       	subi	r22, 0x01	; 1
     dda:	71 09       	sbc	r23, r1
     ddc:	81 09       	sbc	r24, r1
     dde:	91 09       	sbc	r25, r1
     de0:	0e 94 f3 13 	call	0x27e6	; 0x27e6 <__floatunsisf>
     de4:	0e 94 a5 14 	call	0x294a	; 0x294a <lrint>
     de8:	07 2f       	mov	r16, r23
     dea:	18 2f       	mov	r17, r24
     dec:	29 2f       	mov	r18, r25
     dee:	33 27       	eor	r19, r19
     df0:	27 fd       	sbrc	r18, 7
     df2:	3a 95       	dec	r19
     df4:	00 93 cd 00 	sts	0x00CD, r16
	UBRR1L = (unsigned char) UBBRValue(BAUD);
     df8:	60 93 cc 00 	sts	0x00CC, r22
	// Activar pines d RX y TX
	UCSR1B = ( 1 << RXEN1 ) | ( 1 << TXEN1 );	
     dfc:	88 e1       	ldi	r24, 0x18	; 24
     dfe:	80 93 c9 00 	sts	0x00C9, r24
    // 	Asignar formato ( 8data, 2stop )
	UCSR1C = ( 1 << USBS1 ) | ( 3 << UCSZ10 );
     e02:	8e e0       	ldi	r24, 0x0E	; 14
     e04:	80 93 ca 00 	sts	0x00CA, r24
}
     e08:	1f 91       	pop	r17
     e0a:	0f 91       	pop	r16
     e0c:	08 95       	ret

00000e0e <_Z9writeUARTh>:
//Enviar caracteres
void writeUART(unsigned char data )
{
	while ( ! ( UCSR1A & ( 1 << UDRE1 ) ) );	
     e0e:	e8 ec       	ldi	r30, 0xC8	; 200
     e10:	f0 e0       	ldi	r31, 0x00	; 0
     e12:	90 81       	ld	r25, Z
     e14:	95 ff       	sbrs	r25, 5
     e16:	fd cf       	rjmp	.-6      	; 0xe12 <_Z9writeUARTh+0x4>
	// Envia los datos
	UDR1 = data;
     e18:	80 93 ce 00 	sts	0x00CE, r24
     e1c:	08 95       	ret

00000e1e <_Z8readUARTv>:
}

// Lee los caracteres desde la UART
char readUART(void)
{
	while (!( UCSR1A & ( 1 << RXC1) ));
     e1e:	e8 ec       	ldi	r30, 0xC8	; 200
     e20:	f0 e0       	ldi	r31, 0x00	; 0
     e22:	80 81       	ld	r24, Z
     e24:	88 23       	and	r24, r24
     e26:	ec f7       	brge	.-6      	; 0xe22 <_Z8readUARTv+0x4>
	return UDR1;
     e28:	80 91 ce 00 	lds	r24, 0x00CE
}
     e2c:	08 95       	ret

00000e2e <_Z13availableUARTv>:
//Verifica si hay datos disponibles para leer
bool availableUART(void)
{
	if ( UCSR1A & ( 1 << RXC1) ) return true;
     e2e:	80 91 c8 00 	lds	r24, 0x00C8
	else return false;
}
     e32:	88 1f       	adc	r24, r24
     e34:	88 27       	eor	r24, r24
     e36:	88 1f       	adc	r24, r24
     e38:	08 95       	ret

00000e3a <_Z10uart_printPc>:

// Enviar un String sin salto de linea
void uart_print( char* data )
{
     e3a:	cf 93       	push	r28
     e3c:	df 93       	push	r29
     e3e:	ec 01       	movw	r28, r24
	while (*data)
     e40:	88 81       	ld	r24, Y
     e42:	88 23       	and	r24, r24
     e44:	31 f0       	breq	.+12     	; 0xe52 <_Z10uart_printPc+0x18>
     e46:	21 96       	adiw	r28, 0x01	; 1
	writeUART(*(data++));
     e48:	0e 94 07 07 	call	0xe0e	; 0xe0e <_Z9writeUARTh>
}

// Enviar un String sin salto de linea
void uart_print( char* data )
{
	while (*data)
     e4c:	89 91       	ld	r24, Y+
     e4e:	81 11       	cpse	r24, r1
     e50:	fb cf       	rjmp	.-10     	; 0xe48 <_Z10uart_printPc+0xe>
	writeUART(*(data++));
}
     e52:	df 91       	pop	r29
     e54:	cf 91       	pop	r28
     e56:	08 95       	ret

00000e58 <_Z10uart_printmh>:
void uart_print(unsigned long num,unsigned char radix=0)
{
     e58:	cf 93       	push	r28
     e5a:	c4 2f       	mov	r28, r20
	if(radix!=0) ultoa(num,string,radix);
     e5c:	44 23       	and	r20, r20
     e5e:	69 f0       	breq	.+26     	; 0xe7a <_Z10uart_printmh+0x22>
     e60:	24 2f       	mov	r18, r20
     e62:	30 e0       	ldi	r19, 0x00	; 0
extern __inline__ __ATTR_GNU_INLINE__
char *ultoa (unsigned long __val, char *__s, int __radix)
{
    if (!__builtin_constant_p (__radix)) {
	extern char *__ultoa (unsigned long, char *, int);
	return __ultoa (__val, __s, __radix);
     e64:	4c e7       	ldi	r20, 0x7C	; 124
     e66:	53 e0       	ldi	r21, 0x03	; 3
     e68:	0e 94 af 1b 	call	0x375e	; 0x375e <ultoa>
	else if(radix==0 || radix==DEC)ultoa(num,string,10);
	
	PORTB ^= (1<<PORTB0);
     e6c:	95 b1       	in	r25, 0x05	; 5
     e6e:	81 e0       	ldi	r24, 0x01	; 1
     e70:	89 27       	eor	r24, r25
     e72:	85 b9       	out	0x05, r24	; 5
	if(radix==HEX){
     e74:	c0 31       	cpi	r28, 0x10	; 16
     e76:	81 f4       	brne	.+32     	; 0xe98 <_Z10uart_printmh+0x40>
     e78:	0a c0       	rjmp	.+20     	; 0xe8e <_Z10uart_printmh+0x36>
    } else if (__radix < 2 || __radix > 36) {
	*__s = 0;
	return __s;
    } else {
	extern char *__ultoa_ncheck (unsigned long, char *, unsigned char);
	return __ultoa_ncheck (__val, __s, __radix);
     e7a:	2a e0       	ldi	r18, 0x0A	; 10
     e7c:	4c e7       	ldi	r20, 0x7C	; 124
     e7e:	53 e0       	ldi	r21, 0x03	; 3
     e80:	0e 94 ba 1b 	call	0x3774	; 0x3774 <__ultoa_ncheck>
void uart_print(unsigned long num,unsigned char radix=0)
{
	if(radix!=0) ultoa(num,string,radix);
	else if(radix==0 || radix==DEC)ultoa(num,string,10);
	
	PORTB ^= (1<<PORTB0);
     e84:	95 b1       	in	r25, 0x05	; 5
     e86:	81 e0       	ldi	r24, 0x01	; 1
     e88:	89 27       	eor	r24, r25
     e8a:	85 b9       	out	0x05, r24	; 5
     e8c:	0b c0       	rjmp	.+22     	; 0xea4 <_Z10uart_printmh+0x4c>
	if(radix==HEX){
		uart_print("0x");
     e8e:	83 e1       	ldi	r24, 0x13	; 19
     e90:	91 e0       	ldi	r25, 0x01	; 1
     e92:	0e 94 1d 07 	call	0xe3a	; 0xe3a <_Z10uart_printPc>
     e96:	06 c0       	rjmp	.+12     	; 0xea4 <_Z10uart_printmh+0x4c>
		}else if(radix==BIN){
     e98:	c2 30       	cpi	r28, 0x02	; 2
     e9a:	21 f4       	brne	.+8      	; 0xea4 <_Z10uart_printmh+0x4c>
		uart_print("0b");
     e9c:	86 e1       	ldi	r24, 0x16	; 22
     e9e:	91 e0       	ldi	r25, 0x01	; 1
     ea0:	0e 94 1d 07 	call	0xe3a	; 0xe3a <_Z10uart_printPc>
	}
	uart_print(string);
     ea4:	8c e7       	ldi	r24, 0x7C	; 124
     ea6:	93 e0       	ldi	r25, 0x03	; 3
     ea8:	0e 94 1d 07 	call	0xe3a	; 0xe3a <_Z10uart_printPc>
	PORTB |= (1<<PORTB0);
     eac:	28 9a       	sbi	0x05, 0	; 5
	
}
     eae:	cf 91       	pop	r28
     eb0:	08 95       	ret

00000eb2 <_Z12uart_printlnPc>:
//Enviar String con salto de linea
void uart_println(char* data)
{
	PORTB ^= (1<<PORTB0);
     eb2:	35 b1       	in	r19, 0x05	; 5
     eb4:	21 e0       	ldi	r18, 0x01	; 1
     eb6:	23 27       	eor	r18, r19
     eb8:	25 b9       	out	0x05, r18	; 5
	uart_print(data);
     eba:	0e 94 1d 07 	call	0xe3a	; 0xe3a <_Z10uart_printPc>
	PORTB |= (1<<PORTB0);
     ebe:	28 9a       	sbi	0x05, 0	; 5
	writeUART('\n');
     ec0:	8a e0       	ldi	r24, 0x0A	; 10
     ec2:	0e 94 07 07 	call	0xe0e	; 0xe0e <_Z9writeUARTh>
     ec6:	08 95       	ret

00000ec8 <_Z10uart_printdh>:
}

void uart_print(double data_f,uint8_t decimales=0){
switch(decimales){
     ec8:	44 30       	cpi	r20, 0x04	; 4
     eca:	e1 f0       	breq	.+56     	; 0xf04 <_Z10uart_printdh+0x3c>
     ecc:	45 30       	cpi	r20, 0x05	; 5
     ece:	89 f1       	breq	.+98     	; 0xf32 <_Z10uart_printdh+0x6a>
     ed0:	43 30       	cpi	r20, 0x03	; 3
     ed2:	09 f0       	breq	.+2      	; 0xed6 <_Z10uart_printdh+0xe>
     ed4:	45 c0       	rjmp	.+138    	; 0xf60 <_Z10uart_printdh+0x98>
	case 3:
	sprintf(string,"%.3f",data_f);
     ed6:	9f 93       	push	r25
     ed8:	8f 93       	push	r24
     eda:	7f 93       	push	r23
     edc:	6f 93       	push	r22
     ede:	89 e1       	ldi	r24, 0x19	; 25
     ee0:	91 e0       	ldi	r25, 0x01	; 1
     ee2:	9f 93       	push	r25
     ee4:	8f 93       	push	r24
     ee6:	8c e7       	ldi	r24, 0x7C	; 124
     ee8:	93 e0       	ldi	r25, 0x03	; 3
     eea:	9f 93       	push	r25
     eec:	8f 93       	push	r24
     eee:	0e 94 2e 1c 	call	0x385c	; 0x385c <sprintf>
	break;
     ef2:	8d b7       	in	r24, 0x3d	; 61
     ef4:	9e b7       	in	r25, 0x3e	; 62
     ef6:	08 96       	adiw	r24, 0x08	; 8
     ef8:	0f b6       	in	r0, 0x3f	; 63
     efa:	f8 94       	cli
     efc:	9e bf       	out	0x3e, r25	; 62
     efe:	0f be       	out	0x3f, r0	; 63
     f00:	8d bf       	out	0x3d, r24	; 61
     f02:	44 c0       	rjmp	.+136    	; 0xf8c <_Z10uart_printdh+0xc4>
	case 4:
	sprintf(string,"%.4f",data_f);
     f04:	9f 93       	push	r25
     f06:	8f 93       	push	r24
     f08:	7f 93       	push	r23
     f0a:	6f 93       	push	r22
     f0c:	8e e1       	ldi	r24, 0x1E	; 30
     f0e:	91 e0       	ldi	r25, 0x01	; 1
     f10:	9f 93       	push	r25
     f12:	8f 93       	push	r24
     f14:	8c e7       	ldi	r24, 0x7C	; 124
     f16:	93 e0       	ldi	r25, 0x03	; 3
     f18:	9f 93       	push	r25
     f1a:	8f 93       	push	r24
     f1c:	0e 94 2e 1c 	call	0x385c	; 0x385c <sprintf>
	break;
     f20:	8d b7       	in	r24, 0x3d	; 61
     f22:	9e b7       	in	r25, 0x3e	; 62
     f24:	08 96       	adiw	r24, 0x08	; 8
     f26:	0f b6       	in	r0, 0x3f	; 63
     f28:	f8 94       	cli
     f2a:	9e bf       	out	0x3e, r25	; 62
     f2c:	0f be       	out	0x3f, r0	; 63
     f2e:	8d bf       	out	0x3d, r24	; 61
     f30:	2d c0       	rjmp	.+90     	; 0xf8c <_Z10uart_printdh+0xc4>
	case 5:
	sprintf(string,"%.5f",data_f);
     f32:	9f 93       	push	r25
     f34:	8f 93       	push	r24
     f36:	7f 93       	push	r23
     f38:	6f 93       	push	r22
     f3a:	83 e2       	ldi	r24, 0x23	; 35
     f3c:	91 e0       	ldi	r25, 0x01	; 1
     f3e:	9f 93       	push	r25
     f40:	8f 93       	push	r24
     f42:	8c e7       	ldi	r24, 0x7C	; 124
     f44:	93 e0       	ldi	r25, 0x03	; 3
     f46:	9f 93       	push	r25
     f48:	8f 93       	push	r24
     f4a:	0e 94 2e 1c 	call	0x385c	; 0x385c <sprintf>
	break;
     f4e:	8d b7       	in	r24, 0x3d	; 61
     f50:	9e b7       	in	r25, 0x3e	; 62
     f52:	08 96       	adiw	r24, 0x08	; 8
     f54:	0f b6       	in	r0, 0x3f	; 63
     f56:	f8 94       	cli
     f58:	9e bf       	out	0x3e, r25	; 62
     f5a:	0f be       	out	0x3f, r0	; 63
     f5c:	8d bf       	out	0x3d, r24	; 61
     f5e:	16 c0       	rjmp	.+44     	; 0xf8c <_Z10uart_printdh+0xc4>
	default:
	sprintf(string,"%.1f",data_f);
     f60:	9f 93       	push	r25
     f62:	8f 93       	push	r24
     f64:	7f 93       	push	r23
     f66:	6f 93       	push	r22
     f68:	88 e2       	ldi	r24, 0x28	; 40
     f6a:	91 e0       	ldi	r25, 0x01	; 1
     f6c:	9f 93       	push	r25
     f6e:	8f 93       	push	r24
     f70:	8c e7       	ldi	r24, 0x7C	; 124
     f72:	93 e0       	ldi	r25, 0x03	; 3
     f74:	9f 93       	push	r25
     f76:	8f 93       	push	r24
     f78:	0e 94 2e 1c 	call	0x385c	; 0x385c <sprintf>
	break;
     f7c:	8d b7       	in	r24, 0x3d	; 61
     f7e:	9e b7       	in	r25, 0x3e	; 62
     f80:	08 96       	adiw	r24, 0x08	; 8
     f82:	0f b6       	in	r0, 0x3f	; 63
     f84:	f8 94       	cli
     f86:	9e bf       	out	0x3e, r25	; 62
     f88:	0f be       	out	0x3f, r0	; 63
     f8a:	8d bf       	out	0x3d, r24	; 61
}
uart_print(string);
     f8c:	8c e7       	ldi	r24, 0x7C	; 124
     f8e:	93 e0       	ldi	r25, 0x03	; 3
     f90:	0e 94 1d 07 	call	0xe3a	; 0xe3a <_Z10uart_printPc>
     f94:	08 95       	ret

00000f96 <_Z10uart_printjh>:
}
void uart_println(double data_f,uint8_t decimales=0){
	uart_print(data_f,decimales);
	writeUART('\n');
}
void uart_print(unsigned int num,unsigned char radix=0){
     f96:	cf 93       	push	r28
     f98:	c6 2f       	mov	r28, r22
	if(radix!=0) itoa(num,string,radix);
     f9a:	66 23       	and	r22, r22
     f9c:	69 f0       	breq	.+26     	; 0xfb8 <_Z10uart_printjh+0x22>
     f9e:	46 2f       	mov	r20, r22
     fa0:	50 e0       	ldi	r21, 0x00	; 0
extern __inline__ __ATTR_GNU_INLINE__
char *itoa (int __val, char *__s, int __radix)
{
    if (!__builtin_constant_p (__radix)) {
	extern char *__itoa (int, char *, int);
	return __itoa (__val, __s, __radix);
     fa2:	6c e7       	ldi	r22, 0x7C	; 124
     fa4:	73 e0       	ldi	r23, 0x03	; 3
     fa6:	0e 94 99 1b 	call	0x3732	; 0x3732 <itoa>
	else if(radix==0 || radix==DEC)itoa(num,string,10);
	PORTB ^= (1<<PORTB0);
     faa:	95 b1       	in	r25, 0x05	; 5
     fac:	81 e0       	ldi	r24, 0x01	; 1
     fae:	89 27       	eor	r24, r25
     fb0:	85 b9       	out	0x05, r24	; 5
	if(radix==HEX){
     fb2:	c0 31       	cpi	r28, 0x10	; 16
     fb4:	81 f4       	brne	.+32     	; 0xfd6 <_Z10uart_printjh+0x40>
     fb6:	0a c0       	rjmp	.+20     	; 0xfcc <_Z10uart_printjh+0x36>
    } else if (__radix < 2 || __radix > 36) {
	*__s = 0;
	return __s;
    } else {
	extern char *__itoa_ncheck (int, char *, unsigned char);
	return __itoa_ncheck (__val, __s, __radix);
     fb8:	4a e0       	ldi	r20, 0x0A	; 10
     fba:	6c e7       	ldi	r22, 0x7C	; 124
     fbc:	73 e0       	ldi	r23, 0x03	; 3
     fbe:	0e 94 a4 1b 	call	0x3748	; 0x3748 <__itoa_ncheck>
	writeUART('\n');
}
void uart_print(unsigned int num,unsigned char radix=0){
	if(radix!=0) itoa(num,string,radix);
	else if(radix==0 || radix==DEC)itoa(num,string,10);
	PORTB ^= (1<<PORTB0);
     fc2:	95 b1       	in	r25, 0x05	; 5
     fc4:	81 e0       	ldi	r24, 0x01	; 1
     fc6:	89 27       	eor	r24, r25
     fc8:	85 b9       	out	0x05, r24	; 5
     fca:	0b c0       	rjmp	.+22     	; 0xfe2 <_Z10uart_printjh+0x4c>
	if(radix==HEX){
		uart_print("0x");
     fcc:	83 e1       	ldi	r24, 0x13	; 19
     fce:	91 e0       	ldi	r25, 0x01	; 1
     fd0:	0e 94 1d 07 	call	0xe3a	; 0xe3a <_Z10uart_printPc>
     fd4:	06 c0       	rjmp	.+12     	; 0xfe2 <_Z10uart_printjh+0x4c>
		}else if(radix==BIN){
     fd6:	c2 30       	cpi	r28, 0x02	; 2
     fd8:	21 f4       	brne	.+8      	; 0xfe2 <_Z10uart_printjh+0x4c>
		uart_print("0b");
     fda:	86 e1       	ldi	r24, 0x16	; 22
     fdc:	91 e0       	ldi	r25, 0x01	; 1
     fde:	0e 94 1d 07 	call	0xe3a	; 0xe3a <_Z10uart_printPc>
	}
	uart_print(string);
     fe2:	8c e7       	ldi	r24, 0x7C	; 124
     fe4:	93 e0       	ldi	r25, 0x03	; 3
     fe6:	0e 94 1d 07 	call	0xe3a	; 0xe3a <_Z10uart_printPc>
	PORTB |= (1<<PORTB0);
     fea:	28 9a       	sbi	0x05, 0	; 5
}
     fec:	cf 91       	pop	r28
     fee:	08 95       	ret

00000ff0 <_Z10uart_printih>:
void uart_print(int num,unsigned char radix=0){
     ff0:	cf 93       	push	r28
     ff2:	c6 2f       	mov	r28, r22
	if(radix!=0) itoa(num,string,radix);
     ff4:	66 23       	and	r22, r22
     ff6:	69 f0       	breq	.+26     	; 0x1012 <_Z10uart_printih+0x22>
     ff8:	46 2f       	mov	r20, r22
     ffa:	50 e0       	ldi	r21, 0x00	; 0
extern __inline__ __ATTR_GNU_INLINE__
char *itoa (int __val, char *__s, int __radix)
{
    if (!__builtin_constant_p (__radix)) {
	extern char *__itoa (int, char *, int);
	return __itoa (__val, __s, __radix);
     ffc:	6c e7       	ldi	r22, 0x7C	; 124
     ffe:	73 e0       	ldi	r23, 0x03	; 3
    1000:	0e 94 99 1b 	call	0x3732	; 0x3732 <itoa>
	else if(radix==0 || radix==DEC)itoa(num,string,10);
	PORTB ^= (1<<PORTB0);
    1004:	95 b1       	in	r25, 0x05	; 5
    1006:	81 e0       	ldi	r24, 0x01	; 1
    1008:	89 27       	eor	r24, r25
    100a:	85 b9       	out	0x05, r24	; 5
	if(radix==HEX){
    100c:	c0 31       	cpi	r28, 0x10	; 16
    100e:	81 f4       	brne	.+32     	; 0x1030 <_Z10uart_printih+0x40>
    1010:	0a c0       	rjmp	.+20     	; 0x1026 <_Z10uart_printih+0x36>
    } else if (__radix < 2 || __radix > 36) {
	*__s = 0;
	return __s;
    } else {
	extern char *__itoa_ncheck (int, char *, unsigned char);
	return __itoa_ncheck (__val, __s, __radix);
    1012:	4a e0       	ldi	r20, 0x0A	; 10
    1014:	6c e7       	ldi	r22, 0x7C	; 124
    1016:	73 e0       	ldi	r23, 0x03	; 3
    1018:	0e 94 a4 1b 	call	0x3748	; 0x3748 <__itoa_ncheck>
	PORTB |= (1<<PORTB0);
}
void uart_print(int num,unsigned char radix=0){
	if(radix!=0) itoa(num,string,radix);
	else if(radix==0 || radix==DEC)itoa(num,string,10);
	PORTB ^= (1<<PORTB0);
    101c:	95 b1       	in	r25, 0x05	; 5
    101e:	81 e0       	ldi	r24, 0x01	; 1
    1020:	89 27       	eor	r24, r25
    1022:	85 b9       	out	0x05, r24	; 5
    1024:	0b c0       	rjmp	.+22     	; 0x103c <_Z10uart_printih+0x4c>
	if(radix==HEX){
		uart_print("0x");
    1026:	83 e1       	ldi	r24, 0x13	; 19
    1028:	91 e0       	ldi	r25, 0x01	; 1
    102a:	0e 94 1d 07 	call	0xe3a	; 0xe3a <_Z10uart_printPc>
    102e:	06 c0       	rjmp	.+12     	; 0x103c <_Z10uart_printih+0x4c>
		}else if(radix==BIN){
    1030:	c2 30       	cpi	r28, 0x02	; 2
    1032:	21 f4       	brne	.+8      	; 0x103c <_Z10uart_printih+0x4c>
		uart_print("0b");
    1034:	86 e1       	ldi	r24, 0x16	; 22
    1036:	91 e0       	ldi	r25, 0x01	; 1
    1038:	0e 94 1d 07 	call	0xe3a	; 0xe3a <_Z10uart_printPc>
	}
	uart_print(string);
    103c:	8c e7       	ldi	r24, 0x7C	; 124
    103e:	93 e0       	ldi	r25, 0x03	; 3
    1040:	0e 94 1d 07 	call	0xe3a	; 0xe3a <_Z10uart_printPc>
	PORTB |= (1<<PORTB0);
    1044:	28 9a       	sbi	0x05, 0	; 5
}
    1046:	cf 91       	pop	r28
    1048:	08 95       	ret

0000104a <_Z12uart_printlnii>:
void uart_println(unsigned int &num,int radix=0){
	uart_print(num,radix);
	writeUART('\n');
}
void uart_println(int num,int radix=0){
	uart_print(num,radix);
    104a:	0e 94 f8 07 	call	0xff0	; 0xff0 <_Z10uart_printih>
	writeUART('\n');
    104e:	8a e0       	ldi	r24, 0x0A	; 10
    1050:	0e 94 07 07 	call	0xe0e	; 0xe0e <_Z9writeUARTh>
    1054:	08 95       	ret

00001056 <_ZN6Analog4initEv>:
#ifdef __cplusplus

class Analog {
	public:
	Analog();
	inline static void init(){
    1056:	cf 93       	push	r28
    1058:	df 93       	push	r29
	ADCSRA = 0;
    105a:	ea e7       	ldi	r30, 0x7A	; 122
    105c:	f0 e0       	ldi	r31, 0x00	; 0
    105e:	10 82       	st	Z, r1
	ADMUX = 0;
    1060:	ac e7       	ldi	r26, 0x7C	; 124
    1062:	b0 e0       	ldi	r27, 0x00	; 0
    1064:	1c 92       	st	X, r1
	ADCSRB = 0;
    1066:	cb e7       	ldi	r28, 0x7B	; 123
    1068:	d0 e0       	ldi	r29, 0x00	; 0
    106a:	18 82       	st	Y, r1
	ADCSRA |= (1 << ADPS2) | (1 << ADPS1); // prescalar = 64
    106c:	80 81       	ld	r24, Z
    106e:	86 60       	ori	r24, 0x06	; 6
    1070:	80 83       	st	Z, r24
	ADMUX |= (1 << REFS0); // reference voltage from internal source
    1072:	8c 91       	ld	r24, X
    1074:	80 64       	ori	r24, 0x40	; 64
    1076:	8c 93       	st	X, r24
	ADCSRA |= (1 << ADEN); // enable ADC
    1078:	80 81       	ld	r24, Z
    107a:	80 68       	ori	r24, 0x80	; 128
    107c:	80 83       	st	Z, r24
	DIDR0 |= ((1<<ADC5D) | (1<<ADC6D) | (1<<ADC7D) | (1<<ADC4D)); //Deshabilita la funcion digital de los pines analogos
    107e:	ae e7       	ldi	r26, 0x7E	; 126
    1080:	b0 e0       	ldi	r27, 0x00	; 0
    1082:	8c 91       	ld	r24, X
    1084:	80 6f       	ori	r24, 0xF0	; 240
    1086:	8c 93       	st	X, r24
	//Deshabilitar JTAG para usar el puerto F. (Si no deshabilita el ADC no lee valores por debajo de 200)
	MCUCR |= (1<<JTD);
    1088:	85 b7       	in	r24, 0x35	; 53
    108a:	80 68       	ori	r24, 0x80	; 128
    108c:	85 bf       	out	0x35, r24	; 53
	MCUCR |= (1<<JTD);
    108e:	85 b7       	in	r24, 0x35	; 53
    1090:	80 68       	ori	r24, 0x80	; 128
    1092:	85 bf       	out	0x35, r24	; 53
	ADCSRA |= (1<<ADHSM);
    1094:	80 81       	ld	r24, Z
    1096:	80 68       	ori	r24, 0x80	; 128
    1098:	80 83       	st	Z, r24
	ADCSRB = 0;
    109a:	18 82       	st	Y, r1
	ADCSRA |= (1 << ADSC); // start A2D conversions
    109c:	80 81       	ld	r24, Z
    109e:	80 64       	ori	r24, 0x40	; 64
    10a0:	80 83       	st	Z, r24
	}
    10a2:	df 91       	pop	r29
    10a4:	cf 91       	pop	r28
    10a6:	08 95       	ret

000010a8 <_ZN7Digital9setOutputEhh>:
		io->pinRegister = 0;
		io->portRegister = 0;
		io->ddrRegister = 0;
		io->bitmask = 0;
		
		if (pin < 8)			// pin 0 = PB0, ..., 7 = PB7
    10a8:	88 30       	cpi	r24, 0x08	; 8
    10aa:	58 f4       	brcc	.+22     	; 0x10c2 <_ZN7Digital9setOutputEhh+0x1a>
		{
			io->pinRegister = (unsigned char*)&PINB;
			io->portRegister = (unsigned char*)&PORTB;
			io->ddrRegister = (unsigned char*)&DDRB;
			io->bitmask = 1 << pin;
    10ac:	91 e0       	ldi	r25, 0x01	; 1
    10ae:	01 c0       	rjmp	.+2      	; 0x10b2 <_ZN7Digital9setOutputEhh+0xa>
    10b0:	99 0f       	add	r25, r25
    10b2:	8a 95       	dec	r24
    10b4:	ea f7       	brpl	.-6      	; 0x10b0 <_ZN7Digital9setOutputEhh+0x8>
    10b6:	89 2f       	mov	r24, r25
		
		if (pin < 8)			// pin 0 = PB0, ..., 7 = PB7
		{
			io->pinRegister = (unsigned char*)&PINB;
			io->portRegister = (unsigned char*)&PORTB;
			io->ddrRegister = (unsigned char*)&DDRB;
    10b8:	e4 e2       	ldi	r30, 0x24	; 36
    10ba:	f0 e0       	ldi	r31, 0x00	; 0
		io->bitmask = 0;
		
		if (pin < 8)			// pin 0 = PB0, ..., 7 = PB7
		{
			io->pinRegister = (unsigned char*)&PINB;
			io->portRegister = (unsigned char*)&PORTB;
    10bc:	a5 e2       	ldi	r26, 0x25	; 37
    10be:	b0 e0       	ldi	r27, 0x00	; 0
    10c0:	44 c0       	rjmp	.+136    	; 0x114a <_ZN7Digital9setOutputEhh+0xa2>
			io->ddrRegister = (unsigned char*)&DDRB;
			io->bitmask = 1 << pin;
		}
		else if (pin < 16)
    10c2:	80 31       	cpi	r24, 0x10	; 16
    10c4:	60 f4       	brcc	.+24     	; 0x10de <_ZN7Digital9setOutputEhh+0x36>
		{
			io->pinRegister = (unsigned char*)&PIND;
			io->portRegister = (unsigned char*)&PORTD;
			io->ddrRegister = (unsigned char*)&DDRD;
			io->bitmask = 1 << (pin - 8);
    10c6:	98 ef       	ldi	r25, 0xF8	; 248
    10c8:	98 0f       	add	r25, r24
    10ca:	81 e0       	ldi	r24, 0x01	; 1
    10cc:	01 c0       	rjmp	.+2      	; 0x10d0 <_ZN7Digital9setOutputEhh+0x28>
    10ce:	88 0f       	add	r24, r24
    10d0:	9a 95       	dec	r25
    10d2:	ea f7       	brpl	.-6      	; 0x10ce <_ZN7Digital9setOutputEhh+0x26>
		}
		else if (pin < 16)
		{
			io->pinRegister = (unsigned char*)&PIND;
			io->portRegister = (unsigned char*)&PORTD;
			io->ddrRegister = (unsigned char*)&DDRD;
    10d4:	ea e2       	ldi	r30, 0x2A	; 42
    10d6:	f0 e0       	ldi	r31, 0x00	; 0
			io->bitmask = 1 << pin;
		}
		else if (pin < 16)
		{
			io->pinRegister = (unsigned char*)&PIND;
			io->portRegister = (unsigned char*)&PORTD;
    10d8:	ab e2       	ldi	r26, 0x2B	; 43
    10da:	b0 e0       	ldi	r27, 0x00	; 0
    10dc:	36 c0       	rjmp	.+108    	; 0x114a <_ZN7Digital9setOutputEhh+0xa2>
			io->ddrRegister = (unsigned char*)&DDRD;
			io->bitmask = 1 << (pin - 8);
		}
		else if (pin < 22)		// Puerto F
    10de:	86 31       	cpi	r24, 0x16	; 22
    10e0:	c8 f4       	brcc	.+50     	; 0x1114 <_ZN7Digital9setOutputEhh+0x6c>
		{
			io->pinRegister = (unsigned char*)&PINF;
			io->portRegister = (unsigned char*)&PORTF;
			io->ddrRegister = (unsigned char*)&DDRF;
			io->bitmask = 1 << ((pin - 16) > 1 ? (pin-14) : (pin - 16));
    10e2:	90 e0       	ldi	r25, 0x00	; 0
    10e4:	9c 01       	movw	r18, r24
    10e6:	20 51       	subi	r18, 0x10	; 16
    10e8:	31 09       	sbc	r19, r1
    10ea:	22 30       	cpi	r18, 0x02	; 2
    10ec:	31 05       	cpc	r19, r1
    10ee:	44 f0       	brlt	.+16     	; 0x1100 <_ZN7Digital9setOutputEhh+0x58>
    10f0:	2e 5f       	subi	r18, 0xFE	; 254
    10f2:	3f 4f       	sbci	r19, 0xFF	; 255
    10f4:	81 e0       	ldi	r24, 0x01	; 1
    10f6:	01 c0       	rjmp	.+2      	; 0x10fa <_ZN7Digital9setOutputEhh+0x52>
    10f8:	88 0f       	add	r24, r24
    10fa:	2a 95       	dec	r18
    10fc:	ea f7       	brpl	.-6      	; 0x10f8 <_ZN7Digital9setOutputEhh+0x50>
    10fe:	05 c0       	rjmp	.+10     	; 0x110a <_ZN7Digital9setOutputEhh+0x62>
    1100:	81 e0       	ldi	r24, 0x01	; 1
    1102:	01 c0       	rjmp	.+2      	; 0x1106 <_ZN7Digital9setOutputEhh+0x5e>
    1104:	88 0f       	add	r24, r24
    1106:	2a 95       	dec	r18
    1108:	ea f7       	brpl	.-6      	; 0x1104 <_ZN7Digital9setOutputEhh+0x5c>
		}
		else if (pin < 22)		// Puerto F
		{
			io->pinRegister = (unsigned char*)&PINF;
			io->portRegister = (unsigned char*)&PORTF;
			io->ddrRegister = (unsigned char*)&DDRF;
    110a:	e0 e3       	ldi	r30, 0x30	; 48
    110c:	f0 e0       	ldi	r31, 0x00	; 0
			io->bitmask = 1 << (pin - 8);
		}
		else if (pin < 22)		// Puerto F
		{
			io->pinRegister = (unsigned char*)&PINF;
			io->portRegister = (unsigned char*)&PORTF;
    110e:	a1 e3       	ldi	r26, 0x31	; 49
    1110:	b0 e0       	ldi	r27, 0x00	; 0
    1112:	1b c0       	rjmp	.+54     	; 0x114a <_ZN7Digital9setOutputEhh+0xa2>
			io->ddrRegister = (unsigned char*)&DDRF;
			io->bitmask = 1 << ((pin - 16) > 1 ? (pin-14) : (pin - 16));
			}else if (pin < 24){
    1114:	88 31       	cpi	r24, 0x18	; 24
    1116:	60 f4       	brcc	.+24     	; 0x1130 <_ZN7Digital9setOutputEhh+0x88>
			io->pinRegister = (unsigned char*)&PINC;
			io->portRegister = (unsigned char*)&PORTC;
			io->ddrRegister = (unsigned char*)&DDRC;
			io->bitmask = 1 << (pin-16);
    1118:	90 ef       	ldi	r25, 0xF0	; 240
    111a:	98 0f       	add	r25, r24
    111c:	81 e0       	ldi	r24, 0x01	; 1
    111e:	01 c0       	rjmp	.+2      	; 0x1122 <_ZN7Digital9setOutputEhh+0x7a>
    1120:	88 0f       	add	r24, r24
    1122:	9a 95       	dec	r25
    1124:	ea f7       	brpl	.-6      	; 0x1120 <_ZN7Digital9setOutputEhh+0x78>
			io->ddrRegister = (unsigned char*)&DDRF;
			io->bitmask = 1 << ((pin - 16) > 1 ? (pin-14) : (pin - 16));
			}else if (pin < 24){
			io->pinRegister = (unsigned char*)&PINC;
			io->portRegister = (unsigned char*)&PORTC;
			io->ddrRegister = (unsigned char*)&DDRC;
    1126:	e7 e2       	ldi	r30, 0x27	; 39
    1128:	f0 e0       	ldi	r31, 0x00	; 0
			io->portRegister = (unsigned char*)&PORTF;
			io->ddrRegister = (unsigned char*)&DDRF;
			io->bitmask = 1 << ((pin - 16) > 1 ? (pin-14) : (pin - 16));
			}else if (pin < 24){
			io->pinRegister = (unsigned char*)&PINC;
			io->portRegister = (unsigned char*)&PORTC;
    112a:	a8 e2       	ldi	r26, 0x28	; 40
    112c:	b0 e0       	ldi	r27, 0x00	; 0
    112e:	0d c0       	rjmp	.+26     	; 0x114a <_ZN7Digital9setOutputEhh+0xa2>
			io->ddrRegister = (unsigned char*)&DDRC;
			io->bitmask = 1 << (pin-16);
			}else if (pin==24){
    1130:	88 31       	cpi	r24, 0x18	; 24
    1132:	31 f4       	brne	.+12     	; 0x1140 <_ZN7Digital9setOutputEhh+0x98>
			io->pinRegister = (unsigned char*)&PINE;
			io->portRegister = (unsigned char*)&PORTE;
			io->ddrRegister = (unsigned char*)&DDRE;
			io->bitmask = 1 << 6;
    1134:	80 e4       	ldi	r24, 0x40	; 64
			io->ddrRegister = (unsigned char*)&DDRC;
			io->bitmask = 1 << (pin-16);
			}else if (pin==24){
			io->pinRegister = (unsigned char*)&PINE;
			io->portRegister = (unsigned char*)&PORTE;
			io->ddrRegister = (unsigned char*)&DDRE;
    1136:	ed e2       	ldi	r30, 0x2D	; 45
    1138:	f0 e0       	ldi	r31, 0x00	; 0
			io->portRegister = (unsigned char*)&PORTC;
			io->ddrRegister = (unsigned char*)&DDRC;
			io->bitmask = 1 << (pin-16);
			}else if (pin==24){
			io->pinRegister = (unsigned char*)&PINE;
			io->portRegister = (unsigned char*)&PORTE;
    113a:	ae e2       	ldi	r26, 0x2E	; 46
    113c:	b0 e0       	ldi	r27, 0x00	; 0
    113e:	05 c0       	rjmp	.+10     	; 0x114a <_ZN7Digital9setOutputEhh+0xa2>
	inline static void getIORegisters(struct IOStruct* io, unsigned char pin)
	{
		io->pinRegister = 0;
		io->portRegister = 0;
		io->ddrRegister = 0;
		io->bitmask = 0;
    1140:	80 e0       	ldi	r24, 0x00	; 0
	// 1 in the position of the specified pin and 0s everywhere else.
	inline static void getIORegisters(struct IOStruct* io, unsigned char pin)
	{
		io->pinRegister = 0;
		io->portRegister = 0;
		io->ddrRegister = 0;
    1142:	e0 e0       	ldi	r30, 0x00	; 0
    1144:	f0 e0       	ldi	r31, 0x00	; 0
	// with the specified pin (DDR, PORT, and PIN) along with a bitmask with a
	// 1 in the position of the specified pin and 0s everywhere else.
	inline static void getIORegisters(struct IOStruct* io, unsigned char pin)
	{
		io->pinRegister = 0;
		io->portRegister = 0;
    1146:	a0 e0       	ldi	r26, 0x00	; 0
    1148:	b0 e0       	ldi	r27, 0x00	; 0
	// setting it as high-impedance (val = 0) or enabling the internal pull-up (val = 1).  If the pin is an
	// output, this lets you choose between driving low (val = 0) and driving high (val = 1).
	// NOTE: if val is 0xFF (255), this method will toggle the PORT register pin(s).
	inline static void setOutputValue(struct IOStruct* ioPin, unsigned char val)
	{
		if (val == 0xFF)
    114a:	6f 3f       	cpi	r22, 0xFF	; 255
    114c:	21 f4       	brne	.+8      	; 0x1156 <_ZN7Digital9setOutputEhh+0xae>
		*(ioPin->portRegister) ^= ioPin->bitmask;
    114e:	9c 91       	ld	r25, X
    1150:	98 27       	eor	r25, r24
    1152:	9c 93       	st	X, r25
    1154:	0b c0       	rjmp	.+22     	; 0x116c <_ZN7Digital9setOutputEhh+0xc4>
		else if (val)
    1156:	66 23       	and	r22, r22
    1158:	21 f0       	breq	.+8      	; 0x1162 <_ZN7Digital9setOutputEhh+0xba>
		*(ioPin->portRegister) |= ioPin->bitmask;
    115a:	9c 91       	ld	r25, X
    115c:	98 2b       	or	r25, r24
    115e:	9c 93       	st	X, r25
    1160:	05 c0       	rjmp	.+10     	; 0x116c <_ZN7Digital9setOutputEhh+0xc4>
		else
		*(ioPin->portRegister) &= ~ioPin->bitmask;
    1162:	9c 91       	ld	r25, X
    1164:	28 2f       	mov	r18, r24
    1166:	20 95       	com	r18
    1168:	92 23       	and	r25, r18
    116a:	9c 93       	st	X, r25
	// low-level method for setting the data direction (i.e. input or output) of an pin or set of pins
	// described by an IOStruct pointer.
	inline static void setDataDirection(struct IOStruct* ioPin, unsigned char val)
	{
		if (val)
		*(ioPin->ddrRegister) |= ioPin->bitmask;
    116c:	90 81       	ld	r25, Z
    116e:	89 2b       	or	r24, r25
    1170:	80 83       	st	Z, r24
    1172:	08 95       	ret

00001174 <__vector_9>:
		memset(inputString,0,CANTIDAD_ELEMENTOS(inputString));
		stringComplete = false;
	}
}
ISR(PCINT0_vect) //Despierta al microcontrolador del bajo consumo
{
    1174:	1f 92       	push	r1
    1176:	0f 92       	push	r0
    1178:	0f b6       	in	r0, 0x3f	; 63
    117a:	0f 92       	push	r0
    117c:	11 24       	eor	r1, r1
    117e:	2f 93       	push	r18
    1180:	3f 93       	push	r19
    1182:	4f 93       	push	r20
    1184:	5f 93       	push	r21
    1186:	6f 93       	push	r22
    1188:	7f 93       	push	r23
    118a:	8f 93       	push	r24
    118c:	9f 93       	push	r25
    118e:	af 93       	push	r26
    1190:	bf 93       	push	r27
    1192:	ef 93       	push	r30
    1194:	ff 93       	push	r31
	if (!isRun)
    1196:	80 91 7b 03 	lds	r24, 0x037B
    119a:	81 11       	cpse	r24, r1
    119c:	11 c0       	rjmp	.+34     	; 0x11c0 <__vector_9+0x4c>
	{
		if(!bitRead(PINB,4) && isCalibrated){
    119e:	1c 99       	sbic	0x03, 4	; 3
    11a0:	3c c0       	rjmp	.+120    	; 0x121a <__vector_9+0xa6>
    11a2:	80 91 56 03 	lds	r24, 0x0356
    11a6:	81 11       	cpse	r24, r1
    11a8:	26 c0       	rjmp	.+76     	; 0x11f6 <__vector_9+0x82>
    11aa:	37 c0       	rjmp	.+110    	; 0x121a <__vector_9+0xa6>
			sensors.emittersEn(EMITTERS_ON);
			_delay_ms(200);
			isRun = true;
		}else if(!bitRead(PINB,4) && !bitRead(PIND,6)){
    11ac:	4e 9b       	sbis	0x09, 6	; 9
    11ae:	38 c0       	rjmp	.+112    	; 0x1220 <__vector_9+0xac>
    11b0:	54 c0       	rjmp	.+168    	; 0x125a <__vector_9+0xe6>
		power_usart0_enable();
 		power_usart1_enable();
		PCMSK0 &= ~(1<<PCINT4);
		PCICR &= ~(1<<PCIE0);  //Desactiva las interrupcions por cambio de estado
		isCalibrated = false;
		}else if(!bitRead(PINB,4) && bitRead(PIND,6)){
    11b2:	4e 99       	sbic	0x09, 6	; 9
    11b4:	55 c0       	rjmp	.+170    	; 0x1260 <__vector_9+0xec>
		sleep_disable();
		PCMSK0 &= ~(1<<PCINT4);
		PCICR &= ~(1<<PCIE0);   //Desactiva las interrupcions por cambio de estado
		_delay_ms(1000);
	}
	if(bitRead(PINB,4) && !bitRead(PIND,6)){
    11b6:	1c 9b       	sbis	0x03, 4	; 3
    11b8:	74 c0       	rjmp	.+232    	; 0x12a2 <__vector_9+0x12e>
    11ba:	4e 9b       	sbis	0x09, 6	; 9
    11bc:	6d c0       	rjmp	.+218    	; 0x1298 <__vector_9+0x124>
    11be:	71 c0       	rjmp	.+226    	; 0x12a2 <__vector_9+0x12e>
		isCalibrated = false;
		option='C';
	}
	}else if (!bitRead(PINB,4))
    11c0:	1c 99       	sbic	0x03, 4	; 3
    11c2:	6f c0       	rjmp	.+222    	; 0x12a2 <__vector_9+0x12e>
	{
		isRun = false;
    11c4:	10 92 7b 03 	sts	0x037B, r1
		sensors.emittersEn(EMITTERS_OFF);
    11c8:	60 e0       	ldi	r22, 0x00	; 0
    11ca:	83 e4       	ldi	r24, 0x43	; 67
    11cc:	93 e0       	ldi	r25, 0x03	; 3
    11ce:	0e 94 2d 05 	call	0xa5a	; 0xa5a <_ZN9IRSensors10emittersEnEb>
		motors.stopBrakeMotors();
    11d2:	88 e3       	ldi	r24, 0x38	; 56
    11d4:	93 e0       	ldi	r25, 0x03	; 3
    11d6:	0e 94 a5 12 	call	0x254a	; 0x254a <_ZN10Motors32u415stopBrakeMotorsEv>
	#else
		//round up by default
		__ticks_dc = (uint32_t)(ceil(fabs(__tmp)));
	#endif

	__builtin_avr_delay_cycles(__ticks_dc);
    11da:	2f e7       	ldi	r18, 0x7F	; 127
    11dc:	8d e8       	ldi	r24, 0x8D	; 141
    11de:	9b e5       	ldi	r25, 0x5B	; 91
    11e0:	21 50       	subi	r18, 0x01	; 1
    11e2:	80 40       	sbci	r24, 0x00	; 0
    11e4:	90 40       	sbci	r25, 0x00	; 0
    11e6:	e1 f7       	brne	.-8      	; 0x11e0 <__vector_9+0x6c>
    11e8:	00 c0       	rjmp	.+0      	; 0x11ea <__vector_9+0x76>
    11ea:	00 00       	nop
		_delay_ms(2500);
		motors.stopMotors();
    11ec:	88 e3       	ldi	r24, 0x38	; 56
    11ee:	93 e0       	ldi	r25, 0x03	; 3
    11f0:	0e 94 cd 12 	call	0x259a	; 0x259a <_ZN10Motors32u410stopMotorsEv>
    11f4:	56 c0       	rjmp	.+172    	; 0x12a2 <__vector_9+0x12e>
ISR(PCINT0_vect) //Despierta al microcontrolador del bajo consumo
{
	if (!isRun)
	{
		if(!bitRead(PINB,4) && isCalibrated){
			sensors.emittersEn(EMITTERS_ON);
    11f6:	61 e0       	ldi	r22, 0x01	; 1
    11f8:	83 e4       	ldi	r24, 0x43	; 67
    11fa:	93 e0       	ldi	r25, 0x03	; 3
    11fc:	0e 94 2d 05 	call	0xa5a	; 0xa5a <_ZN9IRSensors10emittersEnEb>
    1200:	2f ef       	ldi	r18, 0xFF	; 255
    1202:	82 e5       	ldi	r24, 0x52	; 82
    1204:	97 e0       	ldi	r25, 0x07	; 7
    1206:	21 50       	subi	r18, 0x01	; 1
    1208:	80 40       	sbci	r24, 0x00	; 0
    120a:	90 40       	sbci	r25, 0x00	; 0
    120c:	e1 f7       	brne	.-8      	; 0x1206 <__vector_9+0x92>
    120e:	00 c0       	rjmp	.+0      	; 0x1210 <__vector_9+0x9c>
    1210:	00 00       	nop
			_delay_ms(200);
			isRun = true;
    1212:	81 e0       	ldi	r24, 0x01	; 1
    1214:	80 93 7b 03 	sts	0x037B, r24
    1218:	ce cf       	rjmp	.-100    	; 0x11b6 <__vector_9+0x42>
		}else if(!bitRead(PINB,4) && !bitRead(PIND,6)){
    121a:	1c 9b       	sbis	0x03, 4	; 3
    121c:	c7 cf       	rjmp	.-114    	; 0x11ac <__vector_9+0x38>
    121e:	1d c0       	rjmp	.+58     	; 0x125a <__vector_9+0xe6>
		option = 'A';	//Activa modulo Bluetooth HC-05 para que cuando no este, no genere errores y micro se reinicie
    1220:	81 e4       	ldi	r24, 0x41	; 65
    1222:	80 93 61 03 	sts	0x0361, r24
		enableBT = true;
    1226:	81 e0       	ldi	r24, 0x01	; 1
    1228:	80 93 63 03 	sts	0x0363, r24
		power_usart0_enable();
    122c:	e4 e6       	ldi	r30, 0x64	; 100
    122e:	f0 e0       	ldi	r31, 0x00	; 0
    1230:	80 81       	ld	r24, Z
    1232:	8d 7f       	andi	r24, 0xFD	; 253
    1234:	80 83       	st	Z, r24
 		power_usart1_enable();
    1236:	e5 e6       	ldi	r30, 0x65	; 101
    1238:	f0 e0       	ldi	r31, 0x00	; 0
    123a:	80 81       	ld	r24, Z
    123c:	8e 7f       	andi	r24, 0xFE	; 254
    123e:	80 83       	st	Z, r24
		PCMSK0 &= ~(1<<PCINT4);
    1240:	eb e6       	ldi	r30, 0x6B	; 107
    1242:	f0 e0       	ldi	r31, 0x00	; 0
    1244:	80 81       	ld	r24, Z
    1246:	8f 7e       	andi	r24, 0xEF	; 239
    1248:	80 83       	st	Z, r24
		PCICR &= ~(1<<PCIE0);  //Desactiva las interrupcions por cambio de estado
    124a:	e8 e6       	ldi	r30, 0x68	; 104
    124c:	f0 e0       	ldi	r31, 0x00	; 0
    124e:	80 81       	ld	r24, Z
    1250:	8e 7f       	andi	r24, 0xFE	; 254
    1252:	80 83       	st	Z, r24
		isCalibrated = false;
    1254:	10 92 56 03 	sts	0x0356, r1
    1258:	ae cf       	rjmp	.-164    	; 0x11b6 <__vector_9+0x42>
		}else if(!bitRead(PINB,4) && bitRead(PIND,6)){
    125a:	1c 9b       	sbis	0x03, 4	; 3
    125c:	aa cf       	rjmp	.-172    	; 0x11b2 <__vector_9+0x3e>
    125e:	ab cf       	rjmp	.-170    	; 0x11b6 <__vector_9+0x42>
		if (val == 0xFF)
		*(ioPin->portRegister) ^= ioPin->bitmask;
		else if (val)
		*(ioPin->portRegister) |= ioPin->bitmask;
		else
		*(ioPin->portRegister) &= ~ioPin->bitmask;
    1260:	28 98       	cbi	0x05, 0	; 5
	// low-level method for setting the data direction (i.e. input or output) of an pin or set of pins
	// described by an IOStruct pointer.
	inline static void setDataDirection(struct IOStruct* ioPin, unsigned char val)
	{
		if (val)
		*(ioPin->ddrRegister) |= ioPin->bitmask;
    1262:	20 9a       	sbi	0x04, 0	; 4
		Digital::setOutput(IO_PB0,LOW);
		//isCalibrated = true;
		option='B';
    1264:	82 e4       	ldi	r24, 0x42	; 66
    1266:	80 93 61 03 	sts	0x0361, r24
		sleep_disable();
    126a:	83 b7       	in	r24, 0x33	; 51
    126c:	8e 7f       	andi	r24, 0xFE	; 254
    126e:	83 bf       	out	0x33, r24	; 51
		PCMSK0 &= ~(1<<PCINT4);
    1270:	eb e6       	ldi	r30, 0x6B	; 107
    1272:	f0 e0       	ldi	r31, 0x00	; 0
    1274:	80 81       	ld	r24, Z
    1276:	8f 7e       	andi	r24, 0xEF	; 239
    1278:	80 83       	st	Z, r24
		PCICR &= ~(1<<PCIE0);   //Desactiva las interrupcions por cambio de estado
    127a:	e8 e6       	ldi	r30, 0x68	; 104
    127c:	f0 e0       	ldi	r31, 0x00	; 0
    127e:	80 81       	ld	r24, Z
    1280:	8e 7f       	andi	r24, 0xFE	; 254
    1282:	80 83       	st	Z, r24
    1284:	2f ef       	ldi	r18, 0xFF	; 255
    1286:	8e e9       	ldi	r24, 0x9E	; 158
    1288:	94 e2       	ldi	r25, 0x24	; 36
    128a:	21 50       	subi	r18, 0x01	; 1
    128c:	80 40       	sbci	r24, 0x00	; 0
    128e:	90 40       	sbci	r25, 0x00	; 0
    1290:	e1 f7       	brne	.-8      	; 0x128a <__vector_9+0x116>
    1292:	00 c0       	rjmp	.+0      	; 0x1294 <__vector_9+0x120>
    1294:	00 00       	nop
    1296:	8f cf       	rjmp	.-226    	; 0x11b6 <__vector_9+0x42>
		_delay_ms(1000);
	}
	if(bitRead(PINB,4) && !bitRead(PIND,6)){
		isCalibrated = false;
    1298:	10 92 56 03 	sts	0x0356, r1
		option='C';
    129c:	83 e4       	ldi	r24, 0x43	; 67
    129e:	80 93 61 03 	sts	0x0361, r24
		_delay_ms(2500);
		motors.stopMotors();
// 		PCMSK0 &= ~(1<<PCINT4);
// 		PCICR &= ~(1<<PCIE0);   //Desactiva las interrupcions por cambio de estado
	}
}
    12a2:	ff 91       	pop	r31
    12a4:	ef 91       	pop	r30
    12a6:	bf 91       	pop	r27
    12a8:	af 91       	pop	r26
    12aa:	9f 91       	pop	r25
    12ac:	8f 91       	pop	r24
    12ae:	7f 91       	pop	r23
    12b0:	6f 91       	pop	r22
    12b2:	5f 91       	pop	r21
    12b4:	4f 91       	pop	r20
    12b6:	3f 91       	pop	r19
    12b8:	2f 91       	pop	r18
    12ba:	0f 90       	pop	r0
    12bc:	0f be       	out	0x3f, r0	; 63
    12be:	0f 90       	pop	r0
    12c0:	1f 90       	pop	r1
    12c2:	18 95       	reti

000012c4 <_Z7GetTempv>:
int GetTemp(void)
{
 //ADC Multiplexer Selection Register
 ADMUX = 0;
    12c4:	ec e7       	ldi	r30, 0x7C	; 124
    12c6:	f0 e0       	ldi	r31, 0x00	; 0
    12c8:	10 82       	st	Z, r1
 ADMUX |= (1 << REFS1);  //Internal 2.56V Voltage Reference with external capacitor on AREF pin
    12ca:	80 81       	ld	r24, Z
    12cc:	80 68       	ori	r24, 0x80	; 128
    12ce:	80 83       	st	Z, r24
 ADMUX |= (1 << REFS0);  //Internal 2.56V Voltage Reference with external capacitor on AREF pin
    12d0:	80 81       	ld	r24, Z
    12d2:	80 64       	ori	r24, 0x40	; 64
    12d4:	80 83       	st	Z, r24
 ADMUX &= ~(1 << MUX4);  //Temperature Sensor - 100111
    12d6:	80 81       	ld	r24, Z
    12d8:	8f 7e       	andi	r24, 0xEF	; 239
    12da:	80 83       	st	Z, r24
 ADMUX &= ~(1 << MUX3);  //Temperature Sensor - 100111
    12dc:	80 81       	ld	r24, Z
    12de:	87 7f       	andi	r24, 0xF7	; 247
    12e0:	80 83       	st	Z, r24
 ADMUX |= (1 << MUX2);  //Temperature Sensor - 100111
    12e2:	80 81       	ld	r24, Z
    12e4:	84 60       	ori	r24, 0x04	; 4
    12e6:	80 83       	st	Z, r24
 ADMUX |= (1 << MUX1);  //Temperature Sensor - 100111
    12e8:	80 81       	ld	r24, Z
    12ea:	82 60       	ori	r24, 0x02	; 2
    12ec:	80 83       	st	Z, r24
 ADMUX |= (1 << MUX0);  //Temperature Sensor - 100111
    12ee:	80 81       	ld	r24, Z
    12f0:	81 60       	ori	r24, 0x01	; 1
    12f2:	80 83       	st	Z, r24

 //ADC Control and Status Register A
 ADCSRA = 0;
    12f4:	ea e7       	ldi	r30, 0x7A	; 122
    12f6:	f0 e0       	ldi	r31, 0x00	; 0
    12f8:	10 82       	st	Z, r1
 ADCSRA |= (1 << ADEN);  //Enable the ADC
    12fa:	80 81       	ld	r24, Z
    12fc:	80 68       	ori	r24, 0x80	; 128
    12fe:	80 83       	st	Z, r24
 ADCSRA |= ((1 << ADPS1) | (1<<ADPS0));  //ADC Prescaler - 8 (12MHz -> 1.5MHz)
    1300:	80 81       	ld	r24, Z
    1302:	83 60       	ori	r24, 0x03	; 3
    1304:	80 83       	st	Z, r24
 //ADC Control and Status Register B
 ADCSRB = 0;
    1306:	ab e7       	ldi	r26, 0x7B	; 123
    1308:	b0 e0       	ldi	r27, 0x00	; 0
    130a:	1c 92       	st	X, r1
 ADCSRB |= (1 << MUX5);  //Temperature Sensor - 100111
    130c:	8c 91       	ld	r24, X
    130e:	80 62       	ori	r24, 0x20	; 32
    1310:	8c 93       	st	X, r24
 ADCSRA |= (1 << ADSC);  //Start temperature conversion
    1312:	80 81       	ld	r24, Z
    1314:	80 64       	ori	r24, 0x40	; 64
    1316:	80 83       	st	Z, r24
 while (bitRead(ADCSRA, ADSC));  //Wait for conversion to finish
    1318:	80 81       	ld	r24, Z
    131a:	86 fd       	sbrc	r24, 6
    131c:	fd cf       	rjmp	.-6      	; 0x1318 <_Z7GetTempv+0x54>
 uint8_t low  = ADCL;
    131e:	80 91 78 00 	lds	r24, 0x0078
 uint8_t high = ADCH;
    1322:	20 91 79 00 	lds	r18, 0x0079
 int temperature = (high << 8) | low;  //Result is in kelvin
    1326:	90 e0       	ldi	r25, 0x00	; 0
    1328:	92 2b       	or	r25, r18
 temperature -= (273+OFFSET_TEMP_SENSORS);
 return temperature;
}
    132a:	8a 51       	subi	r24, 0x1A	; 26
    132c:	91 40       	sbci	r25, 0x01	; 1
    132e:	08 95       	ret

00001330 <_Z11readBatteryv>:
void readBattery()
{
    1330:	0f 93       	push	r16
    1332:	1f 93       	push	r17
    1334:	cf 93       	push	r28
    1336:	df 93       	push	r29
	//Calcular voltaje de bateria
//	DDRD |= (1<<4);
//	Digital::setOutput(IO_PD4,LOW);
//	_delay_us(100);
	DDRD &= ~(1<<4);
    1338:	54 98       	cbi	0x0a, 4	; 10
	DIDR2 |= (1<<ADC8D); //Digital input disable, desactiva el pin digital D4 para poder usarlo como analogo
    133a:	ed e7       	ldi	r30, 0x7D	; 125
    133c:	f0 e0       	ldi	r31, 0x00	; 0
    133e:	80 81       	ld	r24, Z
    1340:	81 60       	ori	r24, 0x01	; 1
    1342:	80 83       	st	Z, r24
	volt=0;
    1344:	10 92 5e 03 	sts	0x035E, r1
    1348:	10 92 5d 03 	sts	0x035D, r1
	volt_battery = 0;
    134c:	10 92 59 03 	sts	0x0359, r1
    1350:	10 92 5a 03 	sts	0x035A, r1
    1354:	10 92 5b 03 	sts	0x035B, r1
    1358:	10 92 5c 03 	sts	0x035C, r1
    135c:	2f e7       	ldi	r18, 0x7F	; 127
    135e:	89 ea       	ldi	r24, 0xA9	; 169
    1360:	93 e0       	ldi	r25, 0x03	; 3
    1362:	21 50       	subi	r18, 0x01	; 1
    1364:	80 40       	sbci	r24, 0x00	; 0
    1366:	90 40       	sbci	r25, 0x00	; 0
    1368:	e1 f7       	brne	.-8      	; 0x1362 <_Z11readBatteryv+0x32>
    136a:	00 c0       	rjmp	.+0      	; 0x136c <_Z11readBatteryv+0x3c>
    136c:	00 00       	nop
    136e:	44 e0       	ldi	r20, 0x04	; 4
    inline static uint16_t read(unsigned char ch)
    {
	    if (ch >=8)//
	    {
		    ch -= 0x08;//ch - 8
		    ADCSRB |=  (1 << MUX5);
    1370:	0b e7       	ldi	r16, 0x7B	; 123
    1372:	10 e0       	ldi	r17, 0x00	; 0
	    {
		    ADCSRB &=  ~(1 << MUX5);   // Limpia el bit para canales mayores a 7
	    }
// 	    prevChannel = ADMUX; //Limpia el canal anterior y guarda la configuracion de voltaje de referencia
// 	    prevChannel &= 0b11100000;
	    ADMUX = 0b01000000;
    1374:	ac e7       	ldi	r26, 0x7C	; 124
    1376:	b0 e0       	ldi	r27, 0x00	; 0
    1378:	50 e4       	ldi	r21, 0x40	; 64
	    ADMUX |= ch; // selecting channel
	    ADCSRA |= ((1<<ADSC) | (1<<ADEN));   // Inicia la conversion
    137a:	ea e7       	ldi	r30, 0x7A	; 122
    137c:	f0 e0       	ldi	r31, 0x00	; 0
	    while(!(ADCSRA & (1<<ADIF))); //Espera que se complete la conversion
	    ADCSRA &= (~(1<<ADEN));
	    return (ADC);
    137e:	28 e7       	ldi	r18, 0x78	; 120
    1380:	30 e0       	ldi	r19, 0x00	; 0
    inline static uint16_t read(unsigned char ch)
    {
	    if (ch >=8)//
	    {
		    ch -= 0x08;//ch - 8
		    ADCSRB |=  (1 << MUX5);
    1382:	e8 01       	movw	r28, r16
    1384:	88 81       	ld	r24, Y
    1386:	80 62       	ori	r24, 0x20	; 32
    1388:	88 83       	st	Y, r24
	    {
		    ADCSRB &=  ~(1 << MUX5);   // Limpia el bit para canales mayores a 7
	    }
// 	    prevChannel = ADMUX; //Limpia el canal anterior y guarda la configuracion de voltaje de referencia
// 	    prevChannel &= 0b11100000;
	    ADMUX = 0b01000000;
    138a:	5c 93       	st	X, r21
	    ADMUX |= ch; // selecting channel
    138c:	8c 91       	ld	r24, X
    138e:	8c 93       	st	X, r24
	    ADCSRA |= ((1<<ADSC) | (1<<ADEN));   // Inicia la conversion
    1390:	80 81       	ld	r24, Z
    1392:	80 6c       	ori	r24, 0xC0	; 192
    1394:	80 83       	st	Z, r24
	    while(!(ADCSRA & (1<<ADIF))); //Espera que se complete la conversion
    1396:	80 81       	ld	r24, Z
    1398:	84 ff       	sbrs	r24, 4
    139a:	fd cf       	rjmp	.-6      	; 0x1396 <_Z11readBatteryv+0x66>
	    ADCSRA &= (~(1<<ADEN));
    139c:	80 81       	ld	r24, Z
    139e:	8f 77       	andi	r24, 0x7F	; 127
    13a0:	80 83       	st	Z, r24
	    return (ADC);
    13a2:	e9 01       	movw	r28, r18
    13a4:	88 81       	ld	r24, Y
    13a6:	99 81       	ldd	r25, Y+1	; 0x01
	unsigned char j;
	_delay_ms(100);
	for (j=0;j<NUM_SAMPLES;j++) 
	{
		volt += Analog::read(8); //Toma 4 muestras del ADC
    13a8:	60 91 5d 03 	lds	r22, 0x035D
    13ac:	70 91 5e 03 	lds	r23, 0x035E
    13b0:	86 0f       	add	r24, r22
    13b2:	97 1f       	adc	r25, r23
    13b4:	90 93 5e 03 	sts	0x035E, r25
    13b8:	80 93 5d 03 	sts	0x035D, r24
    13bc:	8f e2       	ldi	r24, 0x2F	; 47
    13be:	95 e7       	ldi	r25, 0x75	; 117
    13c0:	01 97       	sbiw	r24, 0x01	; 1
    13c2:	f1 f7       	brne	.-4      	; 0x13c0 <_Z11readBatteryv+0x90>
    13c4:	00 c0       	rjmp	.+0      	; 0x13c6 <_Z11readBatteryv+0x96>
    13c6:	00 00       	nop
    13c8:	41 50       	subi	r20, 0x01	; 1
	DIDR2 |= (1<<ADC8D); //Digital input disable, desactiva el pin digital D4 para poder usarlo como analogo
	volt=0;
	volt_battery = 0;
	unsigned char j;
	_delay_ms(100);
	for (j=0;j<NUM_SAMPLES;j++) 
    13ca:	d9 f6       	brne	.-74     	; 0x1382 <_Z11readBatteryv+0x52>
	{
		volt += Analog::read(8); //Toma 4 muestras del ADC
		_delay_ms(10);
	}
	volt/=NUM_SAMPLES;
    13cc:	60 91 5d 03 	lds	r22, 0x035D
    13d0:	70 91 5e 03 	lds	r23, 0x035E
    13d4:	76 95       	lsr	r23
    13d6:	67 95       	ror	r22
    13d8:	76 95       	lsr	r23
    13da:	67 95       	ror	r22
    13dc:	70 93 5e 03 	sts	0x035E, r23
    13e0:	60 93 5d 03 	sts	0x035D, r22
	volt_battery = ((volt*3.3)/1023.0)/0.2805755396f;
    13e4:	80 e0       	ldi	r24, 0x00	; 0
    13e6:	90 e0       	ldi	r25, 0x00	; 0
    13e8:	0e 94 f3 13 	call	0x27e6	; 0x27e6 <__floatunsisf>
    13ec:	23 e3       	ldi	r18, 0x33	; 51
    13ee:	33 e3       	ldi	r19, 0x33	; 51
    13f0:	43 e5       	ldi	r20, 0x53	; 83
    13f2:	50 e4       	ldi	r21, 0x40	; 64
    13f4:	0e 94 e2 14 	call	0x29c4	; 0x29c4 <__mulsf3>
    13f8:	20 e0       	ldi	r18, 0x00	; 0
    13fa:	30 ec       	ldi	r19, 0xC0	; 192
    13fc:	4f e7       	ldi	r20, 0x7F	; 127
    13fe:	54 e4       	ldi	r21, 0x44	; 68
    1400:	0e 94 4b 13 	call	0x2696	; 0x2696 <__divsf3>
    1404:	29 e9       	ldi	r18, 0x99	; 153
    1406:	37 ea       	ldi	r19, 0xA7	; 167
    1408:	4f e8       	ldi	r20, 0x8F	; 143
    140a:	5e e3       	ldi	r21, 0x3E	; 62
    140c:	0e 94 4b 13 	call	0x2696	; 0x2696 <__divsf3>
    1410:	60 93 59 03 	sts	0x0359, r22
    1414:	70 93 5a 03 	sts	0x035A, r23
    1418:	80 93 5b 03 	sts	0x035B, r24
    141c:	90 93 5c 03 	sts	0x035C, r25
}
    1420:	df 91       	pop	r29
    1422:	cf 91       	pop	r28
    1424:	1f 91       	pop	r17
    1426:	0f 91       	pop	r16
    1428:	08 95       	ret

0000142a <_Z11serialEventv>:
void serialEvent() {
    142a:	cf 93       	push	r28
	while (availableUART()) {
		char inChar = (char)readUART();
		inputString[i] = inChar;
		i++;
		if (inChar == '\n') {
			stringComplete = true;
    142c:	c1 e0       	ldi	r28, 0x01	; 1
	volt/=NUM_SAMPLES;
	volt_battery = ((volt*3.3)/1023.0)/0.2805755396f;
}
void serialEvent() {
	static unsigned char i;
	while (availableUART()) {
    142e:	12 c0       	rjmp	.+36     	; 0x1454 <_Z11serialEventv+0x2a>
		char inChar = (char)readUART();
    1430:	0e 94 0f 07 	call	0xe1e	; 0xe1e <_Z8readUARTv>
		inputString[i] = inChar;
    1434:	90 91 29 03 	lds	r25, 0x0329
    1438:	e9 2f       	mov	r30, r25
    143a:	f0 e0       	ldi	r31, 0x00	; 0
    143c:	eb 59       	subi	r30, 0x9B	; 155
    143e:	fc 4f       	sbci	r31, 0xFC	; 252
    1440:	80 83       	st	Z, r24
		i++;
    1442:	9f 5f       	subi	r25, 0xFF	; 255
    1444:	90 93 29 03 	sts	0x0329, r25
		if (inChar == '\n') {
    1448:	8a 30       	cpi	r24, 0x0A	; 10
    144a:	21 f4       	brne	.+8      	; 0x1454 <_Z11serialEventv+0x2a>
			stringComplete = true;
    144c:	c0 93 64 03 	sts	0x0364, r28
			i=0;
    1450:	10 92 29 03 	sts	0x0329, r1
	volt/=NUM_SAMPLES;
	volt_battery = ((volt*3.3)/1023.0)/0.2805755396f;
}
void serialEvent() {
	static unsigned char i;
	while (availableUART()) {
    1454:	0e 94 17 07 	call	0xe2e	; 0xe2e <_Z13availableUARTv>
    1458:	81 11       	cpse	r24, r1
    145a:	ea cf       	rjmp	.-44     	; 0x1430 <_Z11serialEventv+0x6>
		if (inChar == '\n') {
			stringComplete = true;
			i=0;
		}
	}
}
    145c:	cf 91       	pop	r28
    145e:	08 95       	ret

00001460 <_Z8pid_calci>:
	DDRD &= ~ (1<<5); //Establece los encoders como entradas
	DDRB &= ~(1<<2);
	DDRE |= (1<<6);
}
void pid_calc(int setPoint)
{
    1460:	cf 92       	push	r12
    1462:	df 92       	push	r13
    1464:	ef 92       	push	r14
    1466:	ff 92       	push	r15
    1468:	cf 93       	push	r28
    146a:	df 93       	push	r29
	static const float Kp = 0.0618435;
	static const float Kd = 2.2188435;
	static int derivative = 0,proportional = 0,last_proportional = 0,power_difference =0;
	static int vel_reverse = 0;

	proportional = ((int)position) - setPoint;
    146c:	60 91 57 03 	lds	r22, 0x0357
    1470:	70 91 58 03 	lds	r23, 0x0358
    1474:	68 1b       	sub	r22, r24
    1476:	79 0b       	sbc	r23, r25
    1478:	70 93 28 03 	sts	0x0328, r23
    147c:	60 93 27 03 	sts	0x0327, r22
	derivative = proportional - last_proportional;
    1480:	80 91 25 03 	lds	r24, 0x0325
    1484:	90 91 26 03 	lds	r25, 0x0326
    1488:	eb 01       	movw	r28, r22
    148a:	c8 1b       	sub	r28, r24
    148c:	d9 0b       	sbc	r29, r25
    148e:	d0 93 24 03 	sts	0x0324, r29
    1492:	c0 93 23 03 	sts	0x0323, r28
	power_difference = ( proportional * Kp ) + ( derivative * Kd );
    1496:	07 2e       	mov	r0, r23
    1498:	00 0c       	add	r0, r0
    149a:	88 0b       	sbc	r24, r24
    149c:	99 0b       	sbc	r25, r25
    149e:	0e 94 f5 13 	call	0x27ea	; 0x27ea <__floatsisf>
    14a2:	2c e9       	ldi	r18, 0x9C	; 156
    14a4:	3f e4       	ldi	r19, 0x4F	; 79
    14a6:	4d e7       	ldi	r20, 0x7D	; 125
    14a8:	5d e3       	ldi	r21, 0x3D	; 61
    14aa:	0e 94 e2 14 	call	0x29c4	; 0x29c4 <__mulsf3>
    14ae:	6b 01       	movw	r12, r22
    14b0:	7c 01       	movw	r14, r24
    14b2:	be 01       	movw	r22, r28
    14b4:	dd 0f       	add	r29, r29
    14b6:	88 0b       	sbc	r24, r24
    14b8:	99 0b       	sbc	r25, r25
    14ba:	0e 94 f5 13 	call	0x27ea	; 0x27ea <__floatsisf>
    14be:	28 e8       	ldi	r18, 0x88	; 136
    14c0:	31 e0       	ldi	r19, 0x01	; 1
    14c2:	4e e0       	ldi	r20, 0x0E	; 14
    14c4:	50 e4       	ldi	r21, 0x40	; 64
    14c6:	0e 94 e2 14 	call	0x29c4	; 0x29c4 <__mulsf3>
    14ca:	9b 01       	movw	r18, r22
    14cc:	ac 01       	movw	r20, r24
    14ce:	c7 01       	movw	r24, r14
    14d0:	b6 01       	movw	r22, r12
    14d2:	0e 94 da 12 	call	0x25b4	; 0x25b4 <__addsf3>
    14d6:	0e 94 bd 13 	call	0x277a	; 0x277a <__fixsfsi>
    14da:	9b 01       	movw	r18, r22
    14dc:	70 93 22 03 	sts	0x0322, r23
    14e0:	60 93 21 03 	sts	0x0321, r22
	if ( power_difference > max ) power_difference = max;     // asignar la mxima permitida
    14e4:	80 91 12 01 	lds	r24, 0x0112
    14e8:	90 e0       	ldi	r25, 0x00	; 0
    14ea:	82 17       	cp	r24, r18
    14ec:	93 07       	cpc	r25, r19
    14ee:	44 f4       	brge	.+16     	; 0x1500 <_Z8pid_calci+0xa0>
    14f0:	80 91 12 01 	lds	r24, 0x0112
    14f4:	90 e0       	ldi	r25, 0x00	; 0
    14f6:	90 93 22 03 	sts	0x0322, r25
    14fa:	80 93 21 03 	sts	0x0321, r24
    14fe:	13 c0       	rjmp	.+38     	; 0x1526 <_Z8pid_calci+0xc6>
	else if ( power_difference < -max ) power_difference = -max;
    1500:	80 91 12 01 	lds	r24, 0x0112
    1504:	90 e0       	ldi	r25, 0x00	; 0
    1506:	91 95       	neg	r25
    1508:	81 95       	neg	r24
    150a:	91 09       	sbc	r25, r1
    150c:	28 17       	cp	r18, r24
    150e:	39 07       	cpc	r19, r25
    1510:	54 f4       	brge	.+20     	; 0x1526 <_Z8pid_calci+0xc6>
    1512:	80 91 12 01 	lds	r24, 0x0112
    1516:	90 e0       	ldi	r25, 0x00	; 0
    1518:	91 95       	neg	r25
    151a:	81 95       	neg	r24
    151c:	91 09       	sbc	r25, r1
    151e:	90 93 22 03 	sts	0x0322, r25
    1522:	80 93 21 03 	sts	0x0321, r24
	// Asignar velocidad calculada en el poder diferencial de los motores
	(power_difference < 0 ) ? motors.setSpeeds(max+power_difference, max)  : motors.setSpeeds(max, max-power_difference);
    1526:	60 91 21 03 	lds	r22, 0x0321
    152a:	70 91 22 03 	lds	r23, 0x0322
    152e:	77 23       	and	r23, r23
    1530:	64 f4       	brge	.+24     	; 0x154a <_Z8pid_calci+0xea>
    1532:	40 91 12 01 	lds	r20, 0x0112
    1536:	80 91 12 01 	lds	r24, 0x0112
    153a:	50 e0       	ldi	r21, 0x00	; 0
    153c:	68 0f       	add	r22, r24
    153e:	71 1d       	adc	r23, r1
    1540:	88 e3       	ldi	r24, 0x38	; 56
    1542:	93 e0       	ldi	r25, 0x03	; 3
    1544:	0e 94 54 12 	call	0x24a8	; 0x24a8 <_ZN10Motors32u49setSpeedsEii>
    1548:	0d c0       	rjmp	.+26     	; 0x1564 <_Z8pid_calci+0x104>
    154a:	40 91 12 01 	lds	r20, 0x0112
    154e:	80 91 12 01 	lds	r24, 0x0112
    1552:	50 e0       	ldi	r21, 0x00	; 0
    1554:	46 1b       	sub	r20, r22
    1556:	57 0b       	sbc	r21, r23
    1558:	68 2f       	mov	r22, r24
    155a:	70 e0       	ldi	r23, 0x00	; 0
    155c:	88 e3       	ldi	r24, 0x38	; 56
    155e:	93 e0       	ldi	r25, 0x03	; 3
    1560:	0e 94 54 12 	call	0x24a8	; 0x24a8 <_ZN10Motors32u49setSpeedsEii>
	vel_reverse = 0;
    1564:	10 92 20 03 	sts	0x0320, r1
    1568:	10 92 1f 03 	sts	0x031F, r1
	if (proportional <= (-2200) ){
    156c:	60 91 27 03 	lds	r22, 0x0327
    1570:	70 91 28 03 	lds	r23, 0x0328
    1574:	69 36       	cpi	r22, 0x69	; 105
    1576:	87 ef       	ldi	r24, 0xF7	; 247
    1578:	78 07       	cpc	r23, r24
    157a:	d4 f4       	brge	.+52     	; 0x15b0 <_Z8pid_calci+0x150>
		vel_reverse=(proportional <= -RANGEBRAKE ) ? proportional >> 6 : proportional>>7;
    157c:	65 32       	cpi	r22, 0x25	; 37
    157e:	8a ef       	ldi	r24, 0xFA	; 250
    1580:	78 07       	cpc	r23, r24
    1582:	4c f4       	brge	.+18     	; 0x1596 <_Z8pid_calci+0x136>
    1584:	06 2e       	mov	r0, r22
    1586:	67 2f       	mov	r22, r23
    1588:	00 0c       	add	r0, r0
    158a:	66 1f       	adc	r22, r22
    158c:	77 0b       	sbc	r23, r23
    158e:	00 0c       	add	r0, r0
    1590:	66 1f       	adc	r22, r22
    1592:	77 1f       	adc	r23, r23
    1594:	04 c0       	rjmp	.+8      	; 0x159e <_Z8pid_calci+0x13e>
    1596:	66 0f       	add	r22, r22
    1598:	67 2f       	mov	r22, r23
    159a:	66 1f       	adc	r22, r22
    159c:	77 0b       	sbc	r23, r23
    159e:	70 93 20 03 	sts	0x0320, r23
    15a2:	60 93 1f 03 	sts	0x031F, r22
		motors.speedLeft(vel_reverse);
    15a6:	88 e3       	ldi	r24, 0x38	; 56
    15a8:	93 e0       	ldi	r25, 0x03	; 3
    15aa:	0e 94 05 12 	call	0x240a	; 0x240a <_ZN10Motors32u49speedLeftEi>
    15ae:	23 c0       	rjmp	.+70     	; 0x15f6 <_Z8pid_calci+0x196>
		} else if ( proportional >= (2200)){
    15b0:	68 39       	cpi	r22, 0x98	; 152
    15b2:	88 e0       	ldi	r24, 0x08	; 8
    15b4:	78 07       	cpc	r23, r24
    15b6:	fc f0       	brlt	.+62     	; 0x15f6 <_Z8pid_calci+0x196>
		vel_reverse = (proportional >= RANGEBRAKE ) ? -(proportional >> 6) : -(proportional>>7);
    15b8:	6c 3d       	cpi	r22, 0xDC	; 220
    15ba:	85 e0       	ldi	r24, 0x05	; 5
    15bc:	78 07       	cpc	r23, r24
    15be:	64 f0       	brlt	.+24     	; 0x15d8 <_Z8pid_calci+0x178>
    15c0:	06 2e       	mov	r0, r22
    15c2:	67 2f       	mov	r22, r23
    15c4:	00 0c       	add	r0, r0
    15c6:	66 1f       	adc	r22, r22
    15c8:	77 0b       	sbc	r23, r23
    15ca:	00 0c       	add	r0, r0
    15cc:	66 1f       	adc	r22, r22
    15ce:	77 1f       	adc	r23, r23
    15d0:	71 95       	neg	r23
    15d2:	61 95       	neg	r22
    15d4:	71 09       	sbc	r23, r1
    15d6:	07 c0       	rjmp	.+14     	; 0x15e6 <_Z8pid_calci+0x186>
    15d8:	66 0f       	add	r22, r22
    15da:	67 2f       	mov	r22, r23
    15dc:	66 1f       	adc	r22, r22
    15de:	77 0b       	sbc	r23, r23
    15e0:	71 95       	neg	r23
    15e2:	61 95       	neg	r22
    15e4:	71 09       	sbc	r23, r1
    15e6:	70 93 20 03 	sts	0x0320, r23
    15ea:	60 93 1f 03 	sts	0x031F, r22
		motors.speedRight(vel_reverse);
    15ee:	88 e3       	ldi	r24, 0x38	; 56
    15f0:	93 e0       	ldi	r25, 0x03	; 3
    15f2:	0e 94 2b 12 	call	0x2456	; 0x2456 <_ZN10Motors32u410speedRightEi>
	}
	
	last_proportional = proportional; 	//Recordando la ltima posicin
    15f6:	80 91 27 03 	lds	r24, 0x0327
    15fa:	90 91 28 03 	lds	r25, 0x0328
    15fe:	90 93 26 03 	sts	0x0326, r25
    1602:	80 93 25 03 	sts	0x0325, r24
}
    1606:	df 91       	pop	r29
    1608:	cf 91       	pop	r28
    160a:	ff 90       	pop	r15
    160c:	ef 90       	pop	r14
    160e:	df 90       	pop	r13
    1610:	cf 90       	pop	r12
    1612:	08 95       	ret

00001614 <__vector_35>:
ISR(TIMER3_OVF_vect){
    1614:	1f 92       	push	r1
    1616:	0f 92       	push	r0
    1618:	0f b6       	in	r0, 0x3f	; 63
    161a:	0f 92       	push	r0
    161c:	11 24       	eor	r1, r1
    161e:	8f 93       	push	r24
    1620:	9f 93       	push	r25
    1622:	af 93       	push	r26
    1624:	bf 93       	push	r27
    1626:	ef 93       	push	r30
    1628:	ff 93       	push	r31
	
	TCNT3 = 65416; //vuelve a cargar el valor del timer para que se desborde cada 10us
    162a:	88 e8       	ldi	r24, 0x88	; 136
    162c:	9f ef       	ldi	r25, 0xFF	; 255
    162e:	90 93 95 00 	sts	0x0095, r25
    1632:	80 93 94 00 	sts	0x0094, r24
	
	static unsigned char micros10;
	static bool Flag1,Flag2,recta;
	static unsigned char ticksAuxR,ticksAuxL;
	
	micros10++;
    1636:	80 91 1e 03 	lds	r24, 0x031E
    163a:	8f 5f       	subi	r24, 0xFF	; 255
	if(micros10==100){
    163c:	84 36       	cpi	r24, 0x64	; 100
    163e:	19 f0       	breq	.+6      	; 0x1646 <__vector_35+0x32>
	
	static unsigned char micros10;
	static bool Flag1,Flag2,recta;
	static unsigned char ticksAuxR,ticksAuxL;
	
	micros10++;
    1640:	80 93 1e 03 	sts	0x031E, r24
    1644:	15 c0       	rjmp	.+42     	; 0x1670 <__vector_35+0x5c>
	if(micros10==100){
		micros10=0;
    1646:	10 92 1e 03 	sts	0x031E, r1
		millis++;
    164a:	80 91 6f 03 	lds	r24, 0x036F
    164e:	90 91 70 03 	lds	r25, 0x0370
    1652:	a0 91 71 03 	lds	r26, 0x0371
    1656:	b0 91 72 03 	lds	r27, 0x0372
    165a:	01 96       	adiw	r24, 0x01	; 1
    165c:	a1 1d       	adc	r26, r1
    165e:	b1 1d       	adc	r27, r1
    1660:	80 93 6f 03 	sts	0x036F, r24
    1664:	90 93 70 03 	sts	0x0370, r25
    1668:	a0 93 71 03 	sts	0x0371, r26
    166c:	b0 93 72 03 	sts	0x0372, r27
	{
		PORTD ^= (1<<7);
		PORTB ^= (1<<0);
		millis=0;
	}*/
	if (isRun)
    1670:	80 91 7b 03 	lds	r24, 0x037B
    1674:	88 23       	and	r24, r24
    1676:	09 f4       	brne	.+2      	; 0x167a <__vector_35+0x66>
    1678:	81 c0       	rjmp	.+258    	; 0x177c <__vector_35+0x168>
	{
	if(bitRead(PIND,5)==true && *pinsMotors[2] == 0){
    167a:	4d 9b       	sbis	0x09, 5	; 9
    167c:	74 c0       	rjmp	.+232    	; 0x1766 <__vector_35+0x152>
    167e:	e0 91 0a 01 	lds	r30, 0x010A
    1682:	f0 91 0b 01 	lds	r31, 0x010B
    1686:	80 81       	ld	r24, Z
    1688:	88 23       	and	r24, r24
    168a:	09 f4       	brne	.+2      	; 0x168e <__vector_35+0x7a>
    168c:	67 c0       	rjmp	.+206    	; 0x175c <__vector_35+0x148>
    168e:	6b c0       	rjmp	.+214    	; 0x1766 <__vector_35+0x152>
			if(!Flag2){
				ticksEncoderR++;
    1690:	80 91 73 03 	lds	r24, 0x0373
    1694:	90 91 74 03 	lds	r25, 0x0374
    1698:	a0 91 75 03 	lds	r26, 0x0375
    169c:	b0 91 76 03 	lds	r27, 0x0376
    16a0:	01 96       	adiw	r24, 0x01	; 1
    16a2:	a1 1d       	adc	r26, r1
    16a4:	b1 1d       	adc	r27, r1
    16a6:	80 93 73 03 	sts	0x0373, r24
    16aa:	90 93 74 03 	sts	0x0374, r25
    16ae:	a0 93 75 03 	sts	0x0375, r26
    16b2:	b0 93 76 03 	sts	0x0376, r27
				ticksAuxR++;
    16b6:	80 91 1c 03 	lds	r24, 0x031C
    16ba:	8f 5f       	subi	r24, 0xFF	; 255
    16bc:	80 93 1c 03 	sts	0x031C, r24
				Flag2 = true;
    16c0:	81 e0       	ldi	r24, 0x01	; 1
    16c2:	80 93 1d 03 	sts	0x031D, r24
			}
			}else{
			Flag2=false;
	}
	if(bitRead(PINB,2)==true && *pinsMotors[0] == 0){
    16c6:	1a 9b       	sbis	0x03, 2	; 3
    16c8:	56 c0       	rjmp	.+172    	; 0x1776 <__vector_35+0x162>
    16ca:	e0 91 06 01 	lds	r30, 0x0106
    16ce:	f0 91 07 01 	lds	r31, 0x0107
    16d2:	80 81       	ld	r24, Z
    16d4:	88 23       	and	r24, r24
    16d6:	09 f4       	brne	.+2      	; 0x16da <__vector_35+0xc6>
    16d8:	49 c0       	rjmp	.+146    	; 0x176c <__vector_35+0x158>
    16da:	4d c0       	rjmp	.+154    	; 0x1776 <__vector_35+0x162>
			if(!Flag1){
				ticksEncoderL++;
    16dc:	80 91 77 03 	lds	r24, 0x0377
    16e0:	90 91 78 03 	lds	r25, 0x0378
    16e4:	a0 91 79 03 	lds	r26, 0x0379
    16e8:	b0 91 7a 03 	lds	r27, 0x037A
    16ec:	01 96       	adiw	r24, 0x01	; 1
    16ee:	a1 1d       	adc	r26, r1
    16f0:	b1 1d       	adc	r27, r1
    16f2:	80 93 77 03 	sts	0x0377, r24
    16f6:	90 93 78 03 	sts	0x0378, r25
    16fa:	a0 93 79 03 	sts	0x0379, r26
    16fe:	b0 93 7a 03 	sts	0x037A, r27
				ticksAuxL++;
    1702:	80 91 1a 03 	lds	r24, 0x031A
    1706:	8f 5f       	subi	r24, 0xFF	; 255
    1708:	80 93 1a 03 	sts	0x031A, r24
				Flag1 = true;
    170c:	81 e0       	ldi	r24, 0x01	; 1
    170e:	80 93 1b 03 	sts	0x031B, r24
			}
			}else{
			Flag1=false;
	}
 //Determinar trazado.
 if(ticksAuxL > 25 || (ticksAuxL==0 && ticksAuxR > 25))
    1712:	80 91 1a 03 	lds	r24, 0x031A
    1716:	8a 31       	cpi	r24, 0x1A	; 26
    1718:	30 f4       	brcc	.+12     	; 0x1726 <__vector_35+0x112>
    171a:	81 11       	cpse	r24, r1
    171c:	15 c0       	rjmp	.+42     	; 0x1748 <__vector_35+0x134>
    171e:	90 91 1c 03 	lds	r25, 0x031C
    1722:	9a 31       	cpi	r25, 0x1A	; 26
    1724:	88 f0       	brcs	.+34     	; 0x1748 <__vector_35+0x134>
 {	static unsigned char trazado;
	 trazado = ticksAuxL - ticksAuxR;
    1726:	90 91 1c 03 	lds	r25, 0x031C
    172a:	89 1b       	sub	r24, r25
    172c:	80 93 19 03 	sts	0x0319, r24
	 
	 if(trazado > 7) //Giro derecha
    1730:	88 30       	cpi	r24, 0x08	; 8
    1732:	18 f0       	brcs	.+6      	; 0x173a <__vector_35+0x126>
	 {
		 recta = 0;
    1734:	10 92 18 03 	sts	0x0318, r1
    1738:	03 c0       	rjmp	.+6      	; 0x1740 <__vector_35+0x12c>
	 {
		 recta = 0;
	 }
	 else //Recta
	 {
		 recta = 1;
    173a:	81 e0       	ldi	r24, 0x01	; 1
    173c:	80 93 18 03 	sts	0x0318, r24
	 }
	 ticksAuxR = ticksAuxL = 0;
    1740:	10 92 1a 03 	sts	0x031A, r1
    1744:	10 92 1c 03 	sts	0x031C, r1
 }
 if(recta){
    1748:	80 91 18 03 	lds	r24, 0x0318
    174c:	88 23       	and	r24, r24
    174e:	19 f0       	breq	.+6      	; 0x1756 <__vector_35+0x142>
	 PORTD |= (1<<7);
    1750:	5f 9a       	sbi	0x0b, 7	; 11
	PORTB |= (1<<0);
    1752:	28 9a       	sbi	0x05, 0	; 5
    1754:	13 c0       	rjmp	.+38     	; 0x177c <__vector_35+0x168>
 }else{
	 PORTB &= ~(1<<0); //El robot esta en curva
    1756:	28 98       	cbi	0x05, 0	; 5
	 PORTD &= ~(1<<7); 
    1758:	5f 98       	cbi	0x0b, 7	; 11
    175a:	10 c0       	rjmp	.+32     	; 0x177c <__vector_35+0x168>
		millis=0;
	}*/
	if (isRun)
	{
	if(bitRead(PIND,5)==true && *pinsMotors[2] == 0){
			if(!Flag2){
    175c:	80 91 1d 03 	lds	r24, 0x031D
    1760:	81 11       	cpse	r24, r1
    1762:	b1 cf       	rjmp	.-158    	; 0x16c6 <__vector_35+0xb2>
    1764:	95 cf       	rjmp	.-214    	; 0x1690 <__vector_35+0x7c>
				ticksEncoderR++;
				ticksAuxR++;
				Flag2 = true;
			}
			}else{
			Flag2=false;
    1766:	10 92 1d 03 	sts	0x031D, r1
    176a:	ad cf       	rjmp	.-166    	; 0x16c6 <__vector_35+0xb2>
	}
	if(bitRead(PINB,2)==true && *pinsMotors[0] == 0){
			if(!Flag1){
    176c:	80 91 1b 03 	lds	r24, 0x031B
    1770:	81 11       	cpse	r24, r1
    1772:	cf cf       	rjmp	.-98     	; 0x1712 <__vector_35+0xfe>
    1774:	b3 cf       	rjmp	.-154    	; 0x16dc <__vector_35+0xc8>
				ticksEncoderL++;
				ticksAuxL++;
				Flag1 = true;
			}
			}else{
			Flag1=false;
    1776:	10 92 1b 03 	sts	0x031B, r1
    177a:	cb cf       	rjmp	.-106    	; 0x1712 <__vector_35+0xfe>
		}
		ticksAuxR = ticksAuxL = 0;
	}*/
	
	}
}
    177c:	ff 91       	pop	r31
    177e:	ef 91       	pop	r30
    1780:	bf 91       	pop	r27
    1782:	af 91       	pop	r26
    1784:	9f 91       	pop	r25
    1786:	8f 91       	pop	r24
    1788:	0f 90       	pop	r0
    178a:	0f be       	out	0x3f, r0	; 63
    178c:	0f 90       	pop	r0
    178e:	1f 90       	pop	r1
    1790:	18 95       	reti

00001792 <_Z16printCalibrationv>:
	isCalibrated=true;
	if(enableBT) printCalibration();
	sensors.saveCalibration(); //Guarda la calibracin en la EEPROM
}
void printCalibration()
{
    1792:	cf 93       	push	r28
    1794:	df 93       	push	r29
	uart_println("Valores de calibracion:");
    1796:	8d e2       	ldi	r24, 0x2D	; 45
    1798:	91 e0       	ldi	r25, 0x01	; 1
    179a:	0e 94 59 07 	call	0xeb2	; 0xeb2 <_Z12uart_printlnPc>
	for (i = 0;i < 4; i++)
    179e:	10 92 60 03 	sts	0x0360, r1
    17a2:	10 92 5f 03 	sts	0x035F, r1
    17a6:	80 e0       	ldi	r24, 0x00	; 0
    17a8:	90 e0       	ldi	r25, 0x00	; 0
	{
		uart_print(sensors.calibratedMaximum[i]);
    17aa:	c3 e4       	ldi	r28, 0x43	; 67
    17ac:	d3 e0       	ldi	r29, 0x03	; 3
    17ae:	88 0f       	add	r24, r24
    17b0:	99 1f       	adc	r25, r25
    17b2:	e8 81       	ld	r30, Y
    17b4:	f9 81       	ldd	r31, Y+1	; 0x01
    17b6:	e8 0f       	add	r30, r24
    17b8:	f9 1f       	adc	r31, r25
    17ba:	60 e0       	ldi	r22, 0x00	; 0
    17bc:	80 81       	ld	r24, Z
    17be:	91 81       	ldd	r25, Z+1	; 0x01
    17c0:	0e 94 cb 07 	call	0xf96	; 0xf96 <_Z10uart_printjh>
		uart_print("	");
    17c4:	85 e4       	ldi	r24, 0x45	; 69
    17c6:	91 e0       	ldi	r25, 0x01	; 1
    17c8:	0e 94 1d 07 	call	0xe3a	; 0xe3a <_Z10uart_printPc>
	sensors.saveCalibration(); //Guarda la calibracin en la EEPROM
}
void printCalibration()
{
	uart_println("Valores de calibracion:");
	for (i = 0;i < 4; i++)
    17cc:	80 91 5f 03 	lds	r24, 0x035F
    17d0:	90 91 60 03 	lds	r25, 0x0360
    17d4:	01 96       	adiw	r24, 0x01	; 1
    17d6:	90 93 60 03 	sts	0x0360, r25
    17da:	80 93 5f 03 	sts	0x035F, r24
    17de:	84 30       	cpi	r24, 0x04	; 4
    17e0:	91 05       	cpc	r25, r1
    17e2:	28 f3       	brcs	.-54     	; 0x17ae <_Z16printCalibrationv+0x1c>
	{
		uart_print(sensors.calibratedMaximum[i]);
		uart_print("	");
	}
	uart_println("	");
    17e4:	85 e4       	ldi	r24, 0x45	; 69
    17e6:	91 e0       	ldi	r25, 0x01	; 1
    17e8:	0e 94 59 07 	call	0xeb2	; 0xeb2 <_Z12uart_printlnPc>
	for (i=0;i<4;i++)
    17ec:	10 92 60 03 	sts	0x0360, r1
    17f0:	10 92 5f 03 	sts	0x035F, r1
    17f4:	80 e0       	ldi	r24, 0x00	; 0
    17f6:	90 e0       	ldi	r25, 0x00	; 0
	{
		uart_print(sensors.calibratedMinimum[i]);
    17f8:	c3 e4       	ldi	r28, 0x43	; 67
    17fa:	d3 e0       	ldi	r29, 0x03	; 3
    17fc:	88 0f       	add	r24, r24
    17fe:	99 1f       	adc	r25, r25
    1800:	ea 81       	ldd	r30, Y+2	; 0x02
    1802:	fb 81       	ldd	r31, Y+3	; 0x03
    1804:	e8 0f       	add	r30, r24
    1806:	f9 1f       	adc	r31, r25
    1808:	60 e0       	ldi	r22, 0x00	; 0
    180a:	80 81       	ld	r24, Z
    180c:	91 81       	ldd	r25, Z+1	; 0x01
    180e:	0e 94 cb 07 	call	0xf96	; 0xf96 <_Z10uart_printjh>
		uart_print("	");
    1812:	85 e4       	ldi	r24, 0x45	; 69
    1814:	91 e0       	ldi	r25, 0x01	; 1
    1816:	0e 94 1d 07 	call	0xe3a	; 0xe3a <_Z10uart_printPc>
	{
		uart_print(sensors.calibratedMaximum[i]);
		uart_print("	");
	}
	uart_println("	");
	for (i=0;i<4;i++)
    181a:	80 91 5f 03 	lds	r24, 0x035F
    181e:	90 91 60 03 	lds	r25, 0x0360
    1822:	01 96       	adiw	r24, 0x01	; 1
    1824:	90 93 60 03 	sts	0x0360, r25
    1828:	80 93 5f 03 	sts	0x035F, r24
    182c:	84 30       	cpi	r24, 0x04	; 4
    182e:	91 05       	cpc	r25, r1
    1830:	28 f3       	brcs	.-54     	; 0x17fc <_Z16printCalibrationv+0x6a>
	{
		uart_print(sensors.calibratedMinimum[i]);
		uart_print("	");
	}
	uart_println("	");
    1832:	85 e4       	ldi	r24, 0x45	; 69
    1834:	91 e0       	ldi	r25, 0x01	; 1
    1836:	0e 94 59 07 	call	0xeb2	; 0xeb2 <_Z12uart_printlnPc>
    183a:	df 91       	pop	r29
    183c:	cf 91       	pop	r28
    183e:	08 95       	ret

00001840 <_Z22restoreLastCalibrationv>:
	}*/
	
	}
}
void restoreLastCalibration(){
	if(!isCalibrated){
    1840:	80 91 56 03 	lds	r24, 0x0356
    1844:	81 11       	cpse	r24, r1
    1846:	10 c0       	rjmp	.+32     	; 0x1868 <_Z22restoreLastCalibrationv+0x28>
	inline static void setOutputValue(struct IOStruct* ioPin, unsigned char val)
	{
		if (val == 0xFF)
		*(ioPin->portRegister) ^= ioPin->bitmask;
		else if (val)
		*(ioPin->portRegister) |= ioPin->bitmask;
    1848:	5f 9a       	sbi	0x0b, 7	; 11
	// low-level method for setting the data direction (i.e. input or output) of an pin or set of pins
	// described by an IOStruct pointer.
	inline static void setDataDirection(struct IOStruct* ioPin, unsigned char val)
	{
		if (val)
		*(ioPin->ddrRegister) |= ioPin->bitmask;
    184a:	57 9a       	sbi	0x0a, 7	; 10
		if (val == 0xFF)
		*(ioPin->portRegister) ^= ioPin->bitmask;
		else if (val)
		*(ioPin->portRegister) |= ioPin->bitmask;
		else
		*(ioPin->portRegister) &= ~ioPin->bitmask;
    184c:	28 98       	cbi	0x05, 0	; 5
	// low-level method for setting the data direction (i.e. input or output) of an pin or set of pins
	// described by an IOStruct pointer.
	inline static void setDataDirection(struct IOStruct* ioPin, unsigned char val)
	{
		if (val)
		*(ioPin->ddrRegister) |= ioPin->bitmask;
    184e:	20 9a       	sbi	0x04, 0	; 4
		Digital::setOutput(IO_PD7,HIGH);
		Digital::setOutput(IO_PB0,LOW);
		sensors.restoreCalibration(); //Restaura la calibracion
    1850:	83 e4       	ldi	r24, 0x43	; 67
    1852:	93 e0       	ldi	r25, 0x03	; 3
    1854:	0e 94 09 06 	call	0xc12	; 0xc12 <_ZN9IRSensors18restoreCalibrationEv>
		if(enableBT) printCalibration();
    1858:	80 91 63 03 	lds	r24, 0x0363
    185c:	81 11       	cpse	r24, r1
    185e:	0e 94 c9 0b 	call	0x1792	; 0x1792 <_Z16printCalibrationv>
		isCalibrated=true;
    1862:	81 e0       	ldi	r24, 0x01	; 1
    1864:	80 93 56 03 	sts	0x0356, r24
    1868:	08 95       	ret

0000186a <_Z18calibrationSensorsv>:
	inline static void setOutputValue(struct IOStruct* ioPin, unsigned char val)
	{
		if (val == 0xFF)
		*(ioPin->portRegister) ^= ioPin->bitmask;
		else if (val)
		*(ioPin->portRegister) |= ioPin->bitmask;
    186a:	5f 9a       	sbi	0x0b, 7	; 11
	// low-level method for setting the data direction (i.e. input or output) of an pin or set of pins
	// described by an IOStruct pointer.
	inline static void setDataDirection(struct IOStruct* ioPin, unsigned char val)
	{
		if (val)
		*(ioPin->ddrRegister) |= ioPin->bitmask;
    186c:	57 9a       	sbi	0x0a, 7	; 10
	inline static void setOutputValue(struct IOStruct* ioPin, unsigned char val)
	{
		if (val == 0xFF)
		*(ioPin->portRegister) ^= ioPin->bitmask;
		else if (val)
		*(ioPin->portRegister) |= ioPin->bitmask;
    186e:	28 9a       	sbi	0x05, 0	; 5
	// low-level method for setting the data direction (i.e. input or output) of an pin or set of pins
	// described by an IOStruct pointer.
	inline static void setDataDirection(struct IOStruct* ioPin, unsigned char val)
	{
		if (val)
		*(ioPin->ddrRegister) |= ioPin->bitmask;
    1870:	20 9a       	sbi	0x04, 0	; 4
	}
}
void calibrationSensors(){
	Digital::setOutput(IO_PD7,HIGH);
	Digital::setOutput(IO_PB0,HIGH);
	sensors.emittersEn(EMITTERS_ON);
    1872:	61 e0       	ldi	r22, 0x01	; 1
    1874:	83 e4       	ldi	r24, 0x43	; 67
    1876:	93 e0       	ldi	r25, 0x03	; 3
    1878:	0e 94 2d 05 	call	0xa5a	; 0xa5a <_ZN9IRSensors10emittersEnEb>
	if(enableBT) uart_println("Calibrando sensores...");
    187c:	80 91 63 03 	lds	r24, 0x0363
    1880:	88 23       	and	r24, r24
    1882:	c1 f1       	breq	.+112    	; 0x18f4 <_Z18calibrationSensorsv+0x8a>
    1884:	87 e4       	ldi	r24, 0x47	; 71
    1886:	91 e0       	ldi	r25, 0x01	; 1
    1888:	0e 94 59 07 	call	0xeb2	; 0xeb2 <_Z12uart_printlnPc>
	for (i=0;i<80;i++)
    188c:	10 92 60 03 	sts	0x0360, r1
    1890:	10 92 5f 03 	sts	0x035F, r1
	// output, this lets you choose between driving low (val = 0) and driving high (val = 1).
	// NOTE: if val is 0xFF (255), this method will toggle the PORT register pin(s).
	inline static void setOutputValue(struct IOStruct* ioPin, unsigned char val)
	{
		if (val == 0xFF)
		*(ioPin->portRegister) ^= ioPin->bitmask;
    1894:	8b b1       	in	r24, 0x0b	; 11
    1896:	80 58       	subi	r24, 0x80	; 128
    1898:	8b b9       	out	0x0b, r24	; 11
	// low-level method for setting the data direction (i.e. input or output) of an pin or set of pins
	// described by an IOStruct pointer.
	inline static void setDataDirection(struct IOStruct* ioPin, unsigned char val)
	{
		if (val)
		*(ioPin->ddrRegister) |= ioPin->bitmask;
    189a:	57 9a       	sbi	0x0a, 7	; 10
	{
		Digital::setOutput(IO_PD7,TOGGLE);
		sensors.calibrate();
    189c:	83 e4       	ldi	r24, 0x43	; 67
    189e:	93 e0       	ldi	r25, 0x03	; 3
    18a0:	0e 94 7e 02 	call	0x4fc	; 0x4fc <_ZN9IRSensors9calibrateEv>
    18a4:	87 ec       	ldi	r24, 0xC7	; 199
    18a6:	9f ea       	ldi	r25, 0xAF	; 175
    18a8:	01 97       	sbiw	r24, 0x01	; 1
    18aa:	f1 f7       	brne	.-4      	; 0x18a8 <_Z18calibrationSensorsv+0x3e>
    18ac:	00 c0       	rjmp	.+0      	; 0x18ae <_Z18calibrationSensorsv+0x44>
    18ae:	00 00       	nop
void calibrationSensors(){
	Digital::setOutput(IO_PD7,HIGH);
	Digital::setOutput(IO_PB0,HIGH);
	sensors.emittersEn(EMITTERS_ON);
	if(enableBT) uart_println("Calibrando sensores...");
	for (i=0;i<80;i++)
    18b0:	80 91 5f 03 	lds	r24, 0x035F
    18b4:	90 91 60 03 	lds	r25, 0x0360
    18b8:	01 96       	adiw	r24, 0x01	; 1
    18ba:	90 93 60 03 	sts	0x0360, r25
    18be:	80 93 5f 03 	sts	0x035F, r24
    18c2:	80 35       	cpi	r24, 0x50	; 80
    18c4:	91 05       	cpc	r25, r1
    18c6:	30 f3       	brcs	.-52     	; 0x1894 <_Z18calibrationSensorsv+0x2a>
		if (val == 0xFF)
		*(ioPin->portRegister) ^= ioPin->bitmask;
		else if (val)
		*(ioPin->portRegister) |= ioPin->bitmask;
		else
		*(ioPin->portRegister) &= ~ioPin->bitmask;
    18c8:	5f 98       	cbi	0x0b, 7	; 11
	// low-level method for setting the data direction (i.e. input or output) of an pin or set of pins
	// described by an IOStruct pointer.
	inline static void setDataDirection(struct IOStruct* ioPin, unsigned char val)
	{
		if (val)
		*(ioPin->ddrRegister) |= ioPin->bitmask;
    18ca:	57 9a       	sbi	0x0a, 7	; 10
	inline static void setOutputValue(struct IOStruct* ioPin, unsigned char val)
	{
		if (val == 0xFF)
		*(ioPin->portRegister) ^= ioPin->bitmask;
		else if (val)
		*(ioPin->portRegister) |= ioPin->bitmask;
    18cc:	28 9a       	sbi	0x05, 0	; 5
	// low-level method for setting the data direction (i.e. input or output) of an pin or set of pins
	// described by an IOStruct pointer.
	inline static void setDataDirection(struct IOStruct* ioPin, unsigned char val)
	{
		if (val)
		*(ioPin->ddrRegister) |= ioPin->bitmask;
    18ce:	20 9a       	sbi	0x04, 0	; 4
		sensors.calibrate();
		_delay_ms(15);
	}
	Digital::setOutput(IO_PD7,LOW);
	Digital::setOutput(IO_PB0,HIGH);
	sensors.emittersEn(EMITTERS_OFF);
    18d0:	60 e0       	ldi	r22, 0x00	; 0
    18d2:	83 e4       	ldi	r24, 0x43	; 67
    18d4:	93 e0       	ldi	r25, 0x03	; 3
    18d6:	0e 94 2d 05 	call	0xa5a	; 0xa5a <_ZN9IRSensors10emittersEnEb>
	isCalibrated=true;
    18da:	81 e0       	ldi	r24, 0x01	; 1
    18dc:	80 93 56 03 	sts	0x0356, r24
	if(enableBT) printCalibration();
    18e0:	80 91 63 03 	lds	r24, 0x0363
    18e4:	81 11       	cpse	r24, r1
    18e6:	0e 94 c9 0b 	call	0x1792	; 0x1792 <_Z16printCalibrationv>
	sensors.saveCalibration(); //Guarda la calibracin en la EEPROM
    18ea:	83 e4       	ldi	r24, 0x43	; 67
    18ec:	93 e0       	ldi	r25, 0x03	; 3
    18ee:	0e 94 96 05 	call	0xb2c	; 0xb2c <_ZN9IRSensors15saveCalibrationEv>
    18f2:	08 95       	ret
void calibrationSensors(){
	Digital::setOutput(IO_PD7,HIGH);
	Digital::setOutput(IO_PB0,HIGH);
	sensors.emittersEn(EMITTERS_ON);
	if(enableBT) uart_println("Calibrando sensores...");
	for (i=0;i<80;i++)
    18f4:	10 92 60 03 	sts	0x0360, r1
    18f8:	10 92 5f 03 	sts	0x035F, r1
    18fc:	cb cf       	rjmp	.-106    	; 0x1894 <_Z18calibrationSensorsv+0x2a>

000018fe <_Z11wakeNatsukyv>:
		
	}
}
//################################## ESPACIO PARA FUNCIONES ########################################
void wakeNatsuky()
{
    18fe:	0f 93       	push	r16
    1900:	cf 93       	push	r28
    1902:	df 93       	push	r29
	power_adc_enable();
    1904:	e4 e6       	ldi	r30, 0x64	; 100
    1906:	f0 e0       	ldi	r31, 0x00	; 0
    1908:	80 81       	ld	r24, Z
    190a:	8e 7f       	andi	r24, 0xFE	; 254
    190c:	80 83       	st	Z, r24
	sensors.init(pinsSensors,NUM_SENSORS,NUM_SAMPLES,EMITTER_PIN); //Configura los sensores
    190e:	08 e1       	ldi	r16, 0x18	; 24
    1910:	24 e0       	ldi	r18, 0x04	; 4
    1912:	44 e0       	ldi	r20, 0x04	; 4
    1914:	6e e0       	ldi	r22, 0x0E	; 14
    1916:	71 e0       	ldi	r23, 0x01	; 1
    1918:	83 e4       	ldi	r24, 0x43	; 67
    191a:	93 e0       	ldi	r25, 0x03	; 3
    191c:	0e 94 1d 01 	call	0x23a	; 0x23a <_ZN9IRSensors4initEPhhhh>
	motors.init(pinsMotors,PRESCALER_1,FAST_PWM); //Configura los motores con un PWM de 46 Khz
    1920:	21 e0       	ldi	r18, 0x01	; 1
    1922:	41 e0       	ldi	r20, 0x01	; 1
    1924:	66 e0       	ldi	r22, 0x06	; 6
    1926:	71 e0       	ldi	r23, 0x01	; 1
    1928:	88 e3       	ldi	r24, 0x38	; 56
    192a:	93 e0       	ldi	r25, 0x03	; 3
    192c:	0e 94 1a 11 	call	0x2234	; 0x2234 <_ZN10Motors32u44initEPPh14prescalerTimerb>
	sensors.emittersEn(EMITTERS_OFF);//Apaga los sensores mientras realiza las respectivas configuraciones
    1930:	60 e0       	ldi	r22, 0x00	; 0
    1932:	83 e4       	ldi	r24, 0x43	; 67
    1934:	93 e0       	ldi	r25, 0x03	; 3
    1936:	0e 94 2d 05 	call	0xa5a	; 0xa5a <_ZN9IRSensors10emittersEnEb>
		if (val == 0xFF)
		*(ioPin->portRegister) ^= ioPin->bitmask;
		else if (val)
		*(ioPin->portRegister) |= ioPin->bitmask;
		else
		*(ioPin->portRegister) &= ~ioPin->bitmask;
    193a:	5f 98       	cbi	0x0b, 7	; 11
	// low-level method for setting the data direction (i.e. input or output) of an pin or set of pins
	// described by an IOStruct pointer.
	inline static void setDataDirection(struct IOStruct* ioPin, unsigned char val)
	{
		if (val)
		*(ioPin->ddrRegister) |= ioPin->bitmask;
    193c:	57 9a       	sbi	0x0a, 7	; 10
	inline static void setOutputValue(struct IOStruct* ioPin, unsigned char val)
	{
		if (val == 0xFF)
		*(ioPin->portRegister) ^= ioPin->bitmask;
		else if (val)
		*(ioPin->portRegister) |= ioPin->bitmask;
    193e:	5d 9a       	sbi	0x0b, 5	; 11
	// low-level method for setting the data direction (i.e. input or output) of an pin or set of pins
	// described by an IOStruct pointer.
	inline static void setDataDirection(struct IOStruct* ioPin, unsigned char val)
	{
		if (val)
		*(ioPin->ddrRegister) |= ioPin->bitmask;
    1940:	55 9a       	sbi	0x0a, 5	; 10
	Digital::setOutput(IO_PD7,LOW);
	Digital::setOutput(IO_PD5,HIGH);
	static int Temp;
	switch(option){
    1942:	80 91 61 03 	lds	r24, 0x0361
    1946:	82 34       	cpi	r24, 0x42	; 66
    1948:	09 f4       	brne	.+2      	; 0x194c <_Z11wakeNatsukyv+0x4e>
    194a:	bf c0       	rjmp	.+382    	; 0x1aca <_Z11wakeNatsukyv+0x1cc>
    194c:	83 34       	cpi	r24, 0x43	; 67
    194e:	09 f4       	brne	.+2      	; 0x1952 <_Z11wakeNatsukyv+0x54>
    1950:	bf c0       	rjmp	.+382    	; 0x1ad0 <_Z11wakeNatsukyv+0x1d2>
    1952:	81 34       	cpi	r24, 0x41	; 65
    1954:	09 f0       	breq	.+2      	; 0x1958 <_Z11wakeNatsukyv+0x5a>
    1956:	c6 c0       	rjmp	.+396    	; 0x1ae4 <_Z11wakeNatsukyv+0x1e6>
	inline static void setOutputValue(struct IOStruct* ioPin, unsigned char val)
	{
		if (val == 0xFF)
		*(ioPin->portRegister) ^= ioPin->bitmask;
		else if (val)
		*(ioPin->portRegister) |= ioPin->bitmask;
    1958:	5f 9a       	sbi	0x0b, 7	; 11
	// low-level method for setting the data direction (i.e. input or output) of an pin or set of pins
	// described by an IOStruct pointer.
	inline static void setDataDirection(struct IOStruct* ioPin, unsigned char val)
	{
		if (val)
		*(ioPin->ddrRegister) |= ioPin->bitmask;
    195a:	57 9a       	sbi	0x0a, 7	; 10
		if (val == 0xFF)
		*(ioPin->portRegister) ^= ioPin->bitmask;
		else if (val)
		*(ioPin->portRegister) |= ioPin->bitmask;
		else
		*(ioPin->portRegister) &= ~ioPin->bitmask;
    195c:	5d 98       	cbi	0x0b, 5	; 11
	// low-level method for setting the data direction (i.e. input or output) of an pin or set of pins
	// described by an IOStruct pointer.
	inline static void setDataDirection(struct IOStruct* ioPin, unsigned char val)
	{
		if (val)
		*(ioPin->ddrRegister) |= ioPin->bitmask;
    195e:	55 9a       	sbi	0x0a, 5	; 10
		case 'A'://Activa la UART para recibir informacion mediante el bluetooth
		Digital::setOutput(IO_PD7,HIGH);
		Digital::setOutput(IO_PD5,LOW);
		initUART(38400); //Inicia comuniacion serial a 38400 bits por segundo para el bluetooth
    1960:	60 e0       	ldi	r22, 0x00	; 0
    1962:	76 e9       	ldi	r23, 0x96	; 150
    1964:	80 e0       	ldi	r24, 0x00	; 0
    1966:	90 e0       	ldi	r25, 0x00	; 0
    1968:	0e 94 ce 06 	call	0xd9c	; 0xd9c <_Z8initUARTm>
		uart_println("#############################");
    196c:	8e e5       	ldi	r24, 0x5E	; 94
    196e:	91 e0       	ldi	r25, 0x01	; 1
    1970:	0e 94 59 07 	call	0xeb2	; 0xeb2 <_Z12uart_printlnPc>
		uart_println("Line Follower Natsuky"); //Mensaje de bienvenida
    1974:	8c e7       	ldi	r24, 0x7C	; 124
    1976:	91 e0       	ldi	r25, 0x01	; 1
    1978:	0e 94 59 07 	call	0xeb2	; 0xeb2 <_Z12uart_printlnPc>
		uart_print("\nUltima fecha de compilacion: ");
    197c:	82 e9       	ldi	r24, 0x92	; 146
    197e:	91 e0       	ldi	r25, 0x01	; 1
    1980:	0e 94 1d 07 	call	0xe3a	; 0xe3a <_Z10uart_printPc>
		uart_println(__DATE__);
    1984:	81 eb       	ldi	r24, 0xB1	; 177
    1986:	91 e0       	ldi	r25, 0x01	; 1
    1988:	0e 94 59 07 	call	0xeb2	; 0xeb2 <_Z12uart_printlnPc>
		uart_print("Hora:");
    198c:	8d eb       	ldi	r24, 0xBD	; 189
    198e:	91 e0       	ldi	r25, 0x01	; 1
    1990:	0e 94 1d 07 	call	0xe3a	; 0xe3a <_Z10uart_printPc>
		uart_println(__TIME__);
    1994:	83 ec       	ldi	r24, 0xC3	; 195
    1996:	91 e0       	ldi	r25, 0x01	; 1
    1998:	0e 94 59 07 	call	0xeb2	; 0xeb2 <_Z12uart_printlnPc>
		uart_println("\nPowered by: Michael Vargas\n");
    199c:	8c ec       	ldi	r24, 0xCC	; 204
    199e:	91 e0       	ldi	r25, 0x01	; 1
    19a0:	0e 94 59 07 	call	0xeb2	; 0xeb2 <_Z12uart_printlnPc>
		uart_print("Temperatura del Nucleo->");
    19a4:	89 ee       	ldi	r24, 0xE9	; 233
    19a6:	91 e0       	ldi	r25, 0x01	; 1
    19a8:	0e 94 1d 07 	call	0xe3a	; 0xe3a <_Z10uart_printPc>
		for (i=0;i<100;i++)
    19ac:	10 92 60 03 	sts	0x0360, r1
    19b0:	10 92 5f 03 	sts	0x035F, r1
		{
		Temp = GetTemp();
    19b4:	0e 94 62 09 	call	0x12c4	; 0x12c4 <_Z7GetTempv>
    19b8:	90 93 33 03 	sts	0x0333, r25
    19bc:	80 93 32 03 	sts	0x0332, r24
    19c0:	8f e2       	ldi	r24, 0x2F	; 47
    19c2:	95 e7       	ldi	r25, 0x75	; 117
    19c4:	01 97       	sbiw	r24, 0x01	; 1
    19c6:	f1 f7       	brne	.-4      	; 0x19c4 <_Z11wakeNatsukyv+0xc6>
    19c8:	00 c0       	rjmp	.+0      	; 0x19ca <_Z11wakeNatsukyv+0xcc>
    19ca:	00 00       	nop
		uart_println(__DATE__);
		uart_print("Hora:");
		uart_println(__TIME__);
		uart_println("\nPowered by: Michael Vargas\n");
		uart_print("Temperatura del Nucleo->");
		for (i=0;i<100;i++)
    19cc:	80 91 5f 03 	lds	r24, 0x035F
    19d0:	90 91 60 03 	lds	r25, 0x0360
    19d4:	01 96       	adiw	r24, 0x01	; 1
    19d6:	90 93 60 03 	sts	0x0360, r25
    19da:	80 93 5f 03 	sts	0x035F, r24
    19de:	84 36       	cpi	r24, 0x64	; 100
    19e0:	91 05       	cpc	r25, r1
    19e2:	40 f3       	brcs	.-48     	; 0x19b4 <_Z11wakeNatsukyv+0xb6>
		{
		Temp = GetTemp();
		_delay_ms(10);
		}
		uart_print(Temp);
    19e4:	60 e0       	ldi	r22, 0x00	; 0
    19e6:	80 91 32 03 	lds	r24, 0x0332
    19ea:	90 91 33 03 	lds	r25, 0x0333
    19ee:	0e 94 f8 07 	call	0xff0	; 0xff0 <_Z10uart_printih>
		uart_println(" C");
    19f2:	82 e0       	ldi	r24, 0x02	; 2
    19f4:	92 e0       	ldi	r25, 0x02	; 2
    19f6:	0e 94 59 07 	call	0xeb2	; 0xeb2 <_Z12uart_printlnPc>
		if(Temp >= 38) uart_println("*Temperatura Alta!*");
    19fa:	80 91 32 03 	lds	r24, 0x0332
    19fe:	90 91 33 03 	lds	r25, 0x0333
    1a02:	86 97       	sbiw	r24, 0x26	; 38
    1a04:	24 f0       	brlt	.+8      	; 0x1a0e <_Z11wakeNatsukyv+0x110>
    1a06:	85 e0       	ldi	r24, 0x05	; 5
    1a08:	92 e0       	ldi	r25, 0x02	; 2
    1a0a:	0e 94 59 07 	call	0xeb2	; 0xeb2 <_Z12uart_printlnPc>

class Analog {
	public:
	Analog();
	inline static void init(){
	ADCSRA = 0;
    1a0e:	ea e7       	ldi	r30, 0x7A	; 122
    1a10:	f0 e0       	ldi	r31, 0x00	; 0
    1a12:	10 82       	st	Z, r1
	ADMUX = 0;
    1a14:	ac e7       	ldi	r26, 0x7C	; 124
    1a16:	b0 e0       	ldi	r27, 0x00	; 0
    1a18:	1c 92       	st	X, r1
	ADCSRB = 0;
    1a1a:	cb e7       	ldi	r28, 0x7B	; 123
    1a1c:	d0 e0       	ldi	r29, 0x00	; 0
    1a1e:	18 82       	st	Y, r1
	ADCSRA |= (1 << ADPS2) | (1 << ADPS1); // prescalar = 64
    1a20:	80 81       	ld	r24, Z
    1a22:	86 60       	ori	r24, 0x06	; 6
    1a24:	80 83       	st	Z, r24
	ADMUX |= (1 << REFS0); // reference voltage from internal source
    1a26:	8c 91       	ld	r24, X
    1a28:	80 64       	ori	r24, 0x40	; 64
    1a2a:	8c 93       	st	X, r24
	ADCSRA |= (1 << ADEN); // enable ADC
    1a2c:	80 81       	ld	r24, Z
    1a2e:	80 68       	ori	r24, 0x80	; 128
    1a30:	80 83       	st	Z, r24
	DIDR0 |= ((1<<ADC5D) | (1<<ADC6D) | (1<<ADC7D) | (1<<ADC4D)); //Deshabilita la funcion digital de los pines analogos
    1a32:	ae e7       	ldi	r26, 0x7E	; 126
    1a34:	b0 e0       	ldi	r27, 0x00	; 0
    1a36:	8c 91       	ld	r24, X
    1a38:	80 6f       	ori	r24, 0xF0	; 240
    1a3a:	8c 93       	st	X, r24
	//Deshabilitar JTAG para usar el puerto F. (Si no deshabilita el ADC no lee valores por debajo de 200)
	MCUCR |= (1<<JTD);
    1a3c:	85 b7       	in	r24, 0x35	; 53
    1a3e:	80 68       	ori	r24, 0x80	; 128
    1a40:	85 bf       	out	0x35, r24	; 53
	MCUCR |= (1<<JTD);
    1a42:	85 b7       	in	r24, 0x35	; 53
    1a44:	80 68       	ori	r24, 0x80	; 128
    1a46:	85 bf       	out	0x35, r24	; 53
	ADCSRA |= (1<<ADHSM);
    1a48:	80 81       	ld	r24, Z
    1a4a:	80 68       	ori	r24, 0x80	; 128
    1a4c:	80 83       	st	Z, r24
	ADCSRB = 0;
    1a4e:	18 82       	st	Y, r1
	ADCSRA |= (1 << ADSC); // start A2D conversions
    1a50:	80 81       	ld	r24, Z
    1a52:	80 64       	ori	r24, 0x40	; 64
    1a54:	80 83       	st	Z, r24
		//Analog::init(); //Estable la configuracion por defecto
		Analog::init();
		readBattery();
    1a56:	0e 94 98 09 	call	0x1330	; 0x1330 <_Z11readBatteryv>
		//Envia la informacin del voltaje de la bateria
		uart_print("Voltaje de bateria->");
    1a5a:	89 e1       	ldi	r24, 0x19	; 25
    1a5c:	92 e0       	ldi	r25, 0x02	; 2
    1a5e:	0e 94 1d 07 	call	0xe3a	; 0xe3a <_Z10uart_printPc>
		uart_print(volt_battery,3);
    1a62:	60 91 59 03 	lds	r22, 0x0359
    1a66:	70 91 5a 03 	lds	r23, 0x035A
    1a6a:	80 91 5b 03 	lds	r24, 0x035B
    1a6e:	90 91 5c 03 	lds	r25, 0x035C
    1a72:	43 e0       	ldi	r20, 0x03	; 3
    1a74:	0e 94 64 07 	call	0xec8	; 0xec8 <_Z10uart_printdh>
		uart_println(" V");
    1a78:	8e e2       	ldi	r24, 0x2E	; 46
    1a7a:	92 e0       	ldi	r25, 0x02	; 2
    1a7c:	0e 94 59 07 	call	0xeb2	; 0xeb2 <_Z12uart_printlnPc>
		uart_print("Frequencia motores->"); //Frecuencia de PWM de los motores
    1a80:	81 e3       	ldi	r24, 0x31	; 49
    1a82:	92 e0       	ldi	r25, 0x02	; 2
    1a84:	0e 94 1d 07 	call	0xe3a	; 0xe3a <_Z10uart_printPc>
		uart_print(motors.getFrequency());
    1a88:	88 e3       	ldi	r24, 0x38	; 56
    1a8a:	93 e0       	ldi	r25, 0x03	; 3
    1a8c:	0e 94 b0 12 	call	0x2560	; 0x2560 <_ZN10Motors32u412getFrequencyEv>
    1a90:	60 e0       	ldi	r22, 0x00	; 0
    1a92:	90 e0       	ldi	r25, 0x00	; 0
    1a94:	0e 94 f8 07 	call	0xff0	; 0xff0 <_Z10uart_printih>
		uart_println(" Khz");
    1a98:	86 e4       	ldi	r24, 0x46	; 70
    1a9a:	92 e0       	ldi	r25, 0x02	; 2
    1a9c:	0e 94 59 07 	call	0xeb2	; 0xeb2 <_Z12uart_printlnPc>
		uart_print("Vel. maxima->");
    1aa0:	8b e4       	ldi	r24, 0x4B	; 75
    1aa2:	92 e0       	ldi	r25, 0x02	; 2
    1aa4:	0e 94 1d 07 	call	0xe3a	; 0xe3a <_Z10uart_printPc>
		uart_print((VEL_MAX*100)/255);
    1aa8:	60 e0       	ldi	r22, 0x00	; 0
    1aaa:	8f e2       	ldi	r24, 0x2F	; 47
    1aac:	90 e0       	ldi	r25, 0x00	; 0
    1aae:	0e 94 f8 07 	call	0xff0	; 0xff0 <_Z10uart_printih>
		uart_println("%");
    1ab2:	89 e5       	ldi	r24, 0x59	; 89
    1ab4:	92 e0       	ldi	r25, 0x02	; 2
    1ab6:	0e 94 59 07 	call	0xeb2	; 0xeb2 <_Z12uart_printlnPc>
		cli();
    1aba:	f8 94       	cli
		TIMSK1 = (1<<TOIE1); //Activa la interrupcion por desbordamiento del Timer1 para leer los datos recibidos en la UART
    1abc:	81 e0       	ldi	r24, 0x01	; 1
    1abe:	80 93 6f 00 	sts	0x006F, r24
		sei();
    1ac2:	78 94       	sei
		enableBT = true;
    1ac4:	80 93 63 03 	sts	0x0363, r24
		break;
    1ac8:	0d c0       	rjmp	.+26     	; 0x1ae4 <_Z11wakeNatsukyv+0x1e6>
		case 'B': restoreLastCalibration(); //Restaura los ultimos valores de calibracion y enseguida inicia la linea
    1aca:	0e 94 20 0c 	call	0x1840	; 0x1840 <_Z22restoreLastCalibrationv>
				break;
    1ace:	0a c0       	rjmp	.+20     	; 0x1ae4 <_Z11wakeNatsukyv+0x1e6>
	inline static void setOutputValue(struct IOStruct* ioPin, unsigned char val)
	{
		if (val == 0xFF)
		*(ioPin->portRegister) ^= ioPin->bitmask;
		else if (val)
		*(ioPin->portRegister) |= ioPin->bitmask;
    1ad0:	28 9a       	sbi	0x05, 0	; 5
	// low-level method for setting the data direction (i.e. input or output) of an pin or set of pins
	// described by an IOStruct pointer.
	inline static void setDataDirection(struct IOStruct* ioPin, unsigned char val)
	{
		if (val)
		*(ioPin->ddrRegister) |= ioPin->bitmask;
    1ad2:	20 9a       	sbi	0x04, 0	; 4
	inline static void setOutputValue(struct IOStruct* ioPin, unsigned char val)
	{
		if (val == 0xFF)
		*(ioPin->portRegister) ^= ioPin->bitmask;
		else if (val)
		*(ioPin->portRegister) |= ioPin->bitmask;
    1ad4:	5f 9a       	sbi	0x0b, 7	; 11
	// low-level method for setting the data direction (i.e. input or output) of an pin or set of pins
	// described by an IOStruct pointer.
	inline static void setDataDirection(struct IOStruct* ioPin, unsigned char val)
	{
		if (val)
		*(ioPin->ddrRegister) |= ioPin->bitmask;
    1ad6:	57 9a       	sbi	0x0a, 7	; 10
    1ad8:	03 c0       	rjmp	.+6      	; 0x1ae0 <_Z11wakeNatsukyv+0x1e2>
		case 'C':
				Digital::setOutput(IO_PB0,HIGH); //Calibra los sensores
				Digital::setOutput(IO_PD7,HIGH);
				while (bitRead(PINB,4))
				{
				if(!bitRead(PIND,6) )	calibrationSensors(); //Calibra los sensores
    1ada:	4e 9b       	sbis	0x09, 6	; 9
    1adc:	0e 94 35 0c 	call	0x186a	; 0x186a <_Z18calibrationSensorsv>
		case 'B': restoreLastCalibration(); //Restaura los ultimos valores de calibracion y enseguida inicia la linea
				break;
		case 'C':
				Digital::setOutput(IO_PB0,HIGH); //Calibra los sensores
				Digital::setOutput(IO_PD7,HIGH);
				while (bitRead(PINB,4))
    1ae0:	1c 99       	sbic	0x03, 4	; 3
    1ae2:	fb cf       	rjmp	.-10     	; 0x1ada <_Z11wakeNatsukyv+0x1dc>
				if(!bitRead(PIND,6) )	calibrationSensors(); //Calibra los sensores
				}
				break; 
	}

}
    1ae4:	df 91       	pop	r29
    1ae6:	cf 91       	pop	r28
    1ae8:	0f 91       	pop	r16
    1aea:	08 95       	ret

00001aec <_Z12sleepNatsukyv>:
	/*
	NOTA:
	* El robot consume 68 mA en modo Sleep
	* Los sensores consumen 92 - 100 mA, por defecto estan apagados para ahorar energia
	*/
	PCMSK0 |= (1<<PCINT4); //Use PCINT4 = PB4 pin 28.
    1aec:	eb e6       	ldi	r30, 0x6B	; 107
    1aee:	f0 e0       	ldi	r31, 0x00	; 0
    1af0:	80 81       	ld	r24, Z
    1af2:	80 61       	ori	r24, 0x10	; 16
    1af4:	80 83       	st	Z, r24
	PCICR |= (1<<PCIE0);   //Activa las interrupcions por cambio de estado
    1af6:	e8 e6       	ldi	r30, 0x68	; 104
    1af8:	f0 e0       	ldi	r31, 0x00	; 0
    1afa:	80 81       	ld	r24, Z
    1afc:	81 60       	ori	r24, 0x01	; 1
    1afe:	80 83       	st	Z, r24
	set_sleep_mode(SLEEP_MODE_PWR_SAVE);//Establecemos el modo de bajo consumo.
    1b00:	83 b7       	in	r24, 0x33	; 51
    1b02:	81 7f       	andi	r24, 0xF1	; 241
    1b04:	86 60       	ori	r24, 0x06	; 6
    1b06:	83 bf       	out	0x33, r24	; 51
	power_adc_disable();
    1b08:	e4 e6       	ldi	r30, 0x64	; 100
    1b0a:	f0 e0       	ldi	r31, 0x00	; 0
    1b0c:	80 81       	ld	r24, Z
    1b0e:	81 60       	ori	r24, 0x01	; 1
    1b10:	80 83       	st	Z, r24
	power_twi_disable();
    1b12:	80 81       	ld	r24, Z
    1b14:	80 68       	ori	r24, 0x80	; 128
    1b16:	80 83       	st	Z, r24
	power_usb_disable();
    1b18:	a5 e6       	ldi	r26, 0x65	; 101
    1b1a:	b0 e0       	ldi	r27, 0x00	; 0
    1b1c:	8c 91       	ld	r24, X
    1b1e:	80 68       	ori	r24, 0x80	; 128
    1b20:	8c 93       	st	X, r24
	power_usart0_disable();
    1b22:	80 81       	ld	r24, Z
    1b24:	82 60       	ori	r24, 0x02	; 2
    1b26:	80 83       	st	Z, r24
	power_usart1_disable();
    1b28:	8c 91       	ld	r24, X
    1b2a:	81 60       	ori	r24, 0x01	; 1
    1b2c:	8c 93       	st	X, r24
	cli();
    1b2e:	f8 94       	cli
	sleep_enable();
    1b30:	83 b7       	in	r24, 0x33	; 51
    1b32:	81 60       	ori	r24, 0x01	; 1
    1b34:	83 bf       	out	0x33, r24	; 51
	sei();
    1b36:	78 94       	sei
	sleep_cpu();
    1b38:	88 95       	sleep
	wakeNatsuky(); //Despierta al micro
    1b3a:	0e 94 7f 0c 	call	0x18fe	; 0x18fe <_Z11wakeNatsukyv>
	sleep_disable();
    1b3e:	83 b7       	in	r24, 0x33	; 51
    1b40:	8e 7f       	andi	r24, 0xFE	; 254
    1b42:	83 bf       	out	0x33, r24	; 51
	DDRD &= ~ (1<<5); //Establece los encoders como entradas
    1b44:	55 98       	cbi	0x0a, 5	; 10
	DDRB &= ~(1<<2);
    1b46:	22 98       	cbi	0x04, 2	; 4
	DDRE |= (1<<6);
    1b48:	6e 9a       	sbi	0x0d, 6	; 13
    1b4a:	08 95       	ret

00001b4c <main>:
		else
		*(ioPin->ddrRegister) &= ~ioPin->bitmask;
    1b4c:	24 98       	cbi	0x04, 4	; 4
	inline static void setOutputValue(struct IOStruct* ioPin, unsigned char val)
	{
		if (val == 0xFF)
		*(ioPin->portRegister) ^= ioPin->bitmask;
		else if (val)
		*(ioPin->portRegister) |= ioPin->bitmask;
    1b4e:	2c 9a       	sbi	0x05, 4	; 5
	inline static void setDataDirection(struct IOStruct* ioPin, unsigned char val)
	{
		if (val)
		*(ioPin->ddrRegister) |= ioPin->bitmask;
		else
		*(ioPin->ddrRegister) &= ~ioPin->bitmask;
    1b50:	56 98       	cbi	0x0a, 6	; 10
	inline static void setOutputValue(struct IOStruct* ioPin, unsigned char val)
	{
		if (val == 0xFF)
		*(ioPin->portRegister) ^= ioPin->bitmask;
		else if (val)
		*(ioPin->portRegister) |= ioPin->bitmask;
    1b52:	5e 9a       	sbi	0x0b, 6	; 11
{
	int setPoint = 2500;
	//Activa a la resistencia pull_up para los pulsadores
	Digital::setInput(IO_PB4,PULL_UP_ENABLED);
	Digital::setInput(IO_PD6,PULL_UP_ENABLED);
	Analog::init();
    1b54:	0e 94 2b 08 	call	0x1056	; 0x1056 <_ZN6Analog4initEv>
	for (i=0;i<10;i++)
    1b58:	10 92 60 03 	sts	0x0360, r1
    1b5c:	10 92 5f 03 	sts	0x035F, r1
	{
		readBattery();
    1b60:	0e 94 98 09 	call	0x1330	; 0x1330 <_Z11readBatteryv>
    1b64:	8f e6       	ldi	r24, 0x6F	; 111
    1b66:	97 e1       	ldi	r25, 0x17	; 23
    1b68:	01 97       	sbiw	r24, 0x01	; 1
    1b6a:	f1 f7       	brne	.-4      	; 0x1b68 <main+0x1c>
    1b6c:	00 c0       	rjmp	.+0      	; 0x1b6e <main+0x22>
    1b6e:	00 00       	nop
	int setPoint = 2500;
	//Activa a la resistencia pull_up para los pulsadores
	Digital::setInput(IO_PB4,PULL_UP_ENABLED);
	Digital::setInput(IO_PD6,PULL_UP_ENABLED);
	Analog::init();
	for (i=0;i<10;i++)
    1b70:	80 91 5f 03 	lds	r24, 0x035F
    1b74:	90 91 60 03 	lds	r25, 0x0360
    1b78:	01 96       	adiw	r24, 0x01	; 1
    1b7a:	90 93 60 03 	sts	0x0360, r25
    1b7e:	80 93 5f 03 	sts	0x035F, r24
    1b82:	0a 97       	sbiw	r24, 0x0a	; 10
    1b84:	68 f3       	brcs	.-38     	; 0x1b60 <main+0x14>
	{
		readBattery();
		_delay_ms(2);
	}
	isRun=false;
    1b86:	10 92 7b 03 	sts	0x037B, r1
	Digital::setOutput(IO_PD7,LOW);
    1b8a:	60 e0       	ldi	r22, 0x00	; 0
    1b8c:	8f e0       	ldi	r24, 0x0F	; 15
    1b8e:	0e 94 54 08 	call	0x10a8	; 0x10a8 <_ZN7Digital9setOutputEhh>
	Digital::setOutput(IO_PB0,HIGH);
    1b92:	61 e0       	ldi	r22, 0x01	; 1
    1b94:	80 e0       	ldi	r24, 0x00	; 0
    1b96:	0e 94 54 08 	call	0x10a8	; 0x10a8 <_ZN7Digital9setOutputEhh>
	if(volt_battery <= 3.9){ //Si la bateria esta descargada enciende los LEDS
    1b9a:	2a e9       	ldi	r18, 0x9A	; 154
    1b9c:	39 e9       	ldi	r19, 0x99	; 153
    1b9e:	49 e7       	ldi	r20, 0x79	; 121
    1ba0:	50 e4       	ldi	r21, 0x40	; 64
    1ba2:	60 91 59 03 	lds	r22, 0x0359
    1ba6:	70 91 5a 03 	lds	r23, 0x035A
    1baa:	80 91 5b 03 	lds	r24, 0x035B
    1bae:	90 91 5c 03 	lds	r25, 0x035C
    1bb2:	0e 94 46 13 	call	0x268c	; 0x268c <__cmpsf2>
    1bb6:	18 16       	cp	r1, r24
    1bb8:	8c f0       	brlt	.+34     	; 0x1bdc <main+0x90>
	Digital::setOutput(IO_PD7,HIGH);
    1bba:	61 e0       	ldi	r22, 0x01	; 1
    1bbc:	8f e0       	ldi	r24, 0x0F	; 15
    1bbe:	0e 94 54 08 	call	0x10a8	; 0x10a8 <_ZN7Digital9setOutputEhh>
	Digital::setOutput(IO_PB0,LOW);
    1bc2:	60 e0       	ldi	r22, 0x00	; 0
    1bc4:	80 e0       	ldi	r24, 0x00	; 0
    1bc6:	0e 94 54 08 	call	0x10a8	; 0x10a8 <_ZN7Digital9setOutputEhh>
    1bca:	9f e7       	ldi	r25, 0x7F	; 127
    1bcc:	2d e8       	ldi	r18, 0x8D	; 141
    1bce:	8b e5       	ldi	r24, 0x5B	; 91
    1bd0:	91 50       	subi	r25, 0x01	; 1
    1bd2:	20 40       	sbci	r18, 0x00	; 0
    1bd4:	80 40       	sbci	r24, 0x00	; 0
    1bd6:	e1 f7       	brne	.-8      	; 0x1bd0 <main+0x84>
    1bd8:	00 c0       	rjmp	.+0      	; 0x1bda <main+0x8e>
    1bda:	00 00       	nop
	_delay_ms(2500);
	}
	sleepNatsuky(); //Duerme al microcontrolador y espera que este despierte por medio de una interrupcion externa
    1bdc:	0e 94 76 0d 	call	0x1aec	; 0x1aec <_Z12sleepNatsukyv>
	// Y Espera una secuencia correcta del microcontrolador
	Digital::setOutput(IO_PD7,LOW);
    1be0:	60 e0       	ldi	r22, 0x00	; 0
    1be2:	8f e0       	ldi	r24, 0x0F	; 15
    1be4:	0e 94 54 08 	call	0x10a8	; 0x10a8 <_ZN7Digital9setOutputEhh>
	Digital::setOutput(IO_PB0,HIGH);
    1be8:	61 e0       	ldi	r22, 0x01	; 1
    1bea:	80 e0       	ldi	r24, 0x00	; 0
    1bec:	0e 94 54 08 	call	0x10a8	; 0x10a8 <_ZN7Digital9setOutputEhh>
	cli();
    1bf0:	f8 94       	cli
	inline static void setDataDirection(struct IOStruct* ioPin, unsigned char val)
	{
		if (val)
		*(ioPin->ddrRegister) |= ioPin->bitmask;
		else
		*(ioPin->ddrRegister) &= ~ioPin->bitmask;
    1bf2:	24 98       	cbi	0x04, 4	; 4
	inline static void setOutputValue(struct IOStruct* ioPin, unsigned char val)
	{
		if (val == 0xFF)
		*(ioPin->portRegister) ^= ioPin->bitmask;
		else if (val)
		*(ioPin->portRegister) |= ioPin->bitmask;
    1bf4:	2c 9a       	sbi	0x05, 4	; 5
	Digital::setInput(IO_PB4,PULL_UP_ENABLED);
	if(!enableBT){
    1bf6:	80 91 63 03 	lds	r24, 0x0363
    1bfa:	81 11       	cpse	r24, r1
    1bfc:	14 c0       	rjmp	.+40     	; 0x1c26 <main+0xda>
	PCMSK0 |= (1<<PCINT4); //Use PCINT4 = PB4 pin 28.
    1bfe:	eb e6       	ldi	r30, 0x6B	; 107
    1c00:	f0 e0       	ldi	r31, 0x00	; 0
    1c02:	80 81       	ld	r24, Z
    1c04:	80 61       	ori	r24, 0x10	; 16
    1c06:	80 83       	st	Z, r24
	PCICR |= (1<<PCIE0);   //Activa las interrupcions por cambio de estado para frenar al robot con el pulsador	
    1c08:	e8 e6       	ldi	r30, 0x68	; 104
    1c0a:	f0 e0       	ldi	r31, 0x00	; 0
    1c0c:	80 81       	ld	r24, Z
    1c0e:	81 60       	ori	r24, 0x01	; 1
    1c10:	80 83       	st	Z, r24
    1c12:	9f ef       	ldi	r25, 0xFF	; 255
    1c14:	2e e9       	ldi	r18, 0x9E	; 158
    1c16:	84 e2       	ldi	r24, 0x24	; 36
    1c18:	91 50       	subi	r25, 0x01	; 1
    1c1a:	20 40       	sbci	r18, 0x00	; 0
    1c1c:	80 40       	sbci	r24, 0x00	; 0
    1c1e:	e1 f7       	brne	.-8      	; 0x1c18 <main+0xcc>
    1c20:	00 c0       	rjmp	.+0      	; 0x1c22 <main+0xd6>
    1c22:	00 00       	nop
    1c24:	0c c0       	rjmp	.+24     	; 0x1c3e <main+0xf2>
	_delay_ms(TIME_START);
	}else{
	printPosition = false;
    1c26:	10 92 62 03 	sts	0x0362, r1
	PCMSK0 &= ~(1<<PCINT4);
    1c2a:	eb e6       	ldi	r30, 0x6B	; 107
    1c2c:	f0 e0       	ldi	r31, 0x00	; 0
    1c2e:	80 81       	ld	r24, Z
    1c30:	8f 7e       	andi	r24, 0xEF	; 239
    1c32:	80 83       	st	Z, r24
	PCICR &= ~(1<<PCIE0);  //Desactiva las interrupcions por cambio de estado	
    1c34:	e8 e6       	ldi	r30, 0x68	; 104
    1c36:	f0 e0       	ldi	r31, 0x00	; 0
    1c38:	80 81       	ld	r24, Z
    1c3a:	8e 7f       	andi	r24, 0xFE	; 254
    1c3c:	80 83       	st	Z, r24
	}
	TCCR3A = 0;
    1c3e:	10 92 90 00 	sts	0x0090, r1
	TCCR3B |= 1;
    1c42:	e1 e9       	ldi	r30, 0x91	; 145
    1c44:	f0 e0       	ldi	r31, 0x00	; 0
    1c46:	80 81       	ld	r24, Z
    1c48:	81 60       	ori	r24, 0x01	; 1
    1c4a:	80 83       	st	Z, r24
	TIMSK3 |= (1<<TOIE3);
    1c4c:	e1 e7       	ldi	r30, 0x71	; 113
    1c4e:	f0 e0       	ldi	r31, 0x00	; 0
    1c50:	80 81       	ld	r24, Z
    1c52:	81 60       	ori	r24, 0x01	; 1
    1c54:	80 83       	st	Z, r24
	TCNT3 = 65416;
    1c56:	88 e8       	ldi	r24, 0x88	; 136
    1c58:	9f ef       	ldi	r25, 0xFF	; 255
    1c5a:	90 93 95 00 	sts	0x0095, r25
    1c5e:	80 93 94 00 	sts	0x0094, r24
	ticksEncoderR = ticksEncoderL = 0;
    1c62:	10 92 77 03 	sts	0x0377, r1
    1c66:	10 92 78 03 	sts	0x0378, r1
    1c6a:	10 92 79 03 	sts	0x0379, r1
    1c6e:	10 92 7a 03 	sts	0x037A, r1
    1c72:	10 92 73 03 	sts	0x0373, r1
    1c76:	10 92 74 03 	sts	0x0374, r1
    1c7a:	10 92 75 03 	sts	0x0375, r1
    1c7e:	10 92 76 03 	sts	0x0376, r1
	millis=0;
    1c82:	10 92 6f 03 	sts	0x036F, r1
    1c86:	10 92 70 03 	sts	0x0370, r1
    1c8a:	10 92 71 03 	sts	0x0371, r1
    1c8e:	10 92 72 03 	sts	0x0372, r1
	sei();
    1c92:	78 94       	sei
	sensors.emittersEn(EMITTERS_ON);
    1c94:	61 e0       	ldi	r22, 0x01	; 1
    1c96:	83 e4       	ldi	r24, 0x43	; 67
    1c98:	93 e0       	ldi	r25, 0x03	; 3
    1c9a:	0e 94 2d 05 	call	0xa5a	; 0xa5a <_ZN9IRSensors10emittersEnEb>
	max = VEL_INITIAL;
    1c9e:	80 e5       	ldi	r24, 0x50	; 80
    1ca0:	80 93 12 01 	sts	0x0112, r24
	isRun = true;
    1ca4:	81 e0       	ldi	r24, 0x01	; 1
    1ca6:	80 93 7b 03 	sts	0x037B, r24
					delta=millis;
				}
				position = sensors.measureLine(sensorValues);
				pid_calc(setPoint);
			}
			TIMSK3 &= ~(1<<TOIE3);
    1caa:	c1 e7       	ldi	r28, 0x71	; 113
    1cac:	d0 e0       	ldi	r29, 0x00	; 0
	isRun = true;
	for(;;) //Inicio del bucle infinito
	{
		if(isRun && isCalibrated && option != 'A'){
			if(millis >= 300 && millis <= 310){
				max = VEL_MAX;
    1cae:	18 e7       	ldi	r17, 0x78	; 120
	sensors.emittersEn(EMITTERS_ON);
	max = VEL_INITIAL;
	isRun = true;
	for(;;) //Inicio del bucle infinito
	{
		if(isRun && isCalibrated && option != 'A'){
    1cb0:	80 91 7b 03 	lds	r24, 0x037B
    1cb4:	88 23       	and	r24, r24
    1cb6:	09 f4       	brne	.+2      	; 0x1cba <main+0x16e>
    1cb8:	de c0       	rjmp	.+444    	; 0x1e76 <main+0x32a>
    1cba:	80 91 56 03 	lds	r24, 0x0356
    1cbe:	88 23       	and	r24, r24
    1cc0:	09 f4       	brne	.+2      	; 0x1cc4 <main+0x178>
    1cc2:	d9 c0       	rjmp	.+434    	; 0x1e76 <main+0x32a>
    1cc4:	80 91 61 03 	lds	r24, 0x0361
    1cc8:	81 34       	cpi	r24, 0x41	; 65
    1cca:	09 f0       	breq	.+2      	; 0x1cce <main+0x182>
    1ccc:	d9 c0       	rjmp	.+434    	; 0x1e80 <main+0x334>
    1cce:	d3 c0       	rjmp	.+422    	; 0x1e76 <main+0x32a>
			if(millis >= 300 && millis <= 310){
    1cd0:	80 91 6f 03 	lds	r24, 0x036F
    1cd4:	90 91 70 03 	lds	r25, 0x0370
    1cd8:	a0 91 71 03 	lds	r26, 0x0371
    1cdc:	b0 91 72 03 	lds	r27, 0x0372
    1ce0:	87 33       	cpi	r24, 0x37	; 55
    1ce2:	91 40       	sbci	r25, 0x01	; 1
    1ce4:	a1 05       	cpc	r26, r1
    1ce6:	b1 05       	cpc	r27, r1
    1ce8:	08 f4       	brcc	.+2      	; 0x1cec <main+0x1a0>
    1cea:	d9 c0       	rjmp	.+434    	; 0x1e9e <main+0x352>
				max = VEL_MAX;
			}
			position = sensors.measureLine(sensorValues);
    1cec:	20 e0       	ldi	r18, 0x00	; 0
    1cee:	4c e3       	ldi	r20, 0x3C	; 60
    1cf0:	50 e0       	ldi	r21, 0x00	; 0
    1cf2:	6e e4       	ldi	r22, 0x4E	; 78
    1cf4:	73 e0       	ldi	r23, 0x03	; 3
    1cf6:	83 e4       	ldi	r24, 0x43	; 67
    1cf8:	93 e0       	ldi	r25, 0x03	; 3
    1cfa:	0e 94 68 04 	call	0x8d0	; 0x8d0 <_ZN9IRSensors11measureLineEPjjb>
    1cfe:	90 93 58 03 	sts	0x0358, r25
    1d02:	80 93 57 03 	sts	0x0357, r24
			pid_calc(setPoint);
    1d06:	84 ec       	ldi	r24, 0xC4	; 196
    1d08:	99 e0       	ldi	r25, 0x09	; 9
    1d0a:	0e 94 30 0a 	call	0x1460	; 0x1460 <_Z8pid_calci>
    1d0e:	64 c0       	rjmp	.+200    	; 0x1dd8 <main+0x28c>
		}else if (!isRun && option != 'A')
    1d10:	80 91 61 03 	lds	r24, 0x0361
    1d14:	81 34       	cpi	r24, 0x41	; 65
    1d16:	09 f0       	breq	.+2      	; 0x1d1a <main+0x1ce>
    1d18:	c5 c0       	rjmp	.+394    	; 0x1ea4 <main+0x358>
    1d1a:	5e c0       	rjmp	.+188    	; 0x1dd8 <main+0x28c>
		{
			if(!enableBT) {
				motors.stopMotors(); //Apaga los motores
			}else{
			while(max > 0){
    1d1c:	80 91 12 01 	lds	r24, 0x0112
    1d20:	81 11       	cpse	r24, r1
    1d22:	06 c0       	rjmp	.+12     	; 0x1d30 <main+0x1e4>
    1d24:	4d c0       	rjmp	.+154    	; 0x1dc0 <main+0x274>
			position = sensors.measureLine(sensorValues);
			pid_calc(setPoint);
		}else if (!isRun && option != 'A')
		{
			if(!enableBT) {
				motors.stopMotors(); //Apaga los motores
    1d26:	88 e3       	ldi	r24, 0x38	; 56
    1d28:	93 e0       	ldi	r25, 0x03	; 3
    1d2a:	0e 94 cd 12 	call	0x259a	; 0x259a <_ZN10Motors32u410stopMotorsEv>
    1d2e:	54 c0       	rjmp	.+168    	; 0x1dd8 <main+0x28c>
			}else{
			while(max > 0){
				sensors.emittersEn(EMITTERS_ON);
    1d30:	61 e0       	ldi	r22, 0x01	; 1
    1d32:	83 e4       	ldi	r24, 0x43	; 67
    1d34:	93 e0       	ldi	r25, 0x03	; 3
    1d36:	0e 94 2d 05 	call	0xa5a	; 0xa5a <_ZN9IRSensors10emittersEnEb>
				static unsigned long delta;
				if ( (millis) - delta >= DELTA_STOP)
    1d3a:	80 91 6f 03 	lds	r24, 0x036F
    1d3e:	90 91 70 03 	lds	r25, 0x0370
    1d42:	a0 91 71 03 	lds	r26, 0x0371
    1d46:	b0 91 72 03 	lds	r27, 0x0372
    1d4a:	40 91 34 03 	lds	r20, 0x0334
    1d4e:	50 91 35 03 	lds	r21, 0x0335
    1d52:	60 91 36 03 	lds	r22, 0x0336
    1d56:	70 91 37 03 	lds	r23, 0x0337
    1d5a:	84 1b       	sub	r24, r20
    1d5c:	95 0b       	sbc	r25, r21
    1d5e:	a6 0b       	sbc	r26, r22
    1d60:	b7 0b       	sbc	r27, r23
    1d62:	88 3c       	cpi	r24, 0xC8	; 200
    1d64:	91 05       	cpc	r25, r1
    1d66:	a1 05       	cpc	r26, r1
    1d68:	b1 05       	cpc	r27, r1
    1d6a:	a8 f0       	brcs	.+42     	; 0x1d96 <main+0x24a>
				{
					max-=10;
    1d6c:	80 91 12 01 	lds	r24, 0x0112
    1d70:	8a 50       	subi	r24, 0x0A	; 10
    1d72:	80 93 12 01 	sts	0x0112, r24
					delta=millis;
    1d76:	80 91 6f 03 	lds	r24, 0x036F
    1d7a:	90 91 70 03 	lds	r25, 0x0370
    1d7e:	a0 91 71 03 	lds	r26, 0x0371
    1d82:	b0 91 72 03 	lds	r27, 0x0372
    1d86:	80 93 34 03 	sts	0x0334, r24
    1d8a:	90 93 35 03 	sts	0x0335, r25
    1d8e:	a0 93 36 03 	sts	0x0336, r26
    1d92:	b0 93 37 03 	sts	0x0337, r27
				}
				position = sensors.measureLine(sensorValues);
    1d96:	20 e0       	ldi	r18, 0x00	; 0
    1d98:	4c e3       	ldi	r20, 0x3C	; 60
    1d9a:	50 e0       	ldi	r21, 0x00	; 0
    1d9c:	6e e4       	ldi	r22, 0x4E	; 78
    1d9e:	73 e0       	ldi	r23, 0x03	; 3
    1da0:	83 e4       	ldi	r24, 0x43	; 67
    1da2:	93 e0       	ldi	r25, 0x03	; 3
    1da4:	0e 94 68 04 	call	0x8d0	; 0x8d0 <_ZN9IRSensors11measureLineEPjjb>
    1da8:	90 93 58 03 	sts	0x0358, r25
    1dac:	80 93 57 03 	sts	0x0357, r24
				pid_calc(setPoint);
    1db0:	84 ec       	ldi	r24, 0xC4	; 196
    1db2:	99 e0       	ldi	r25, 0x09	; 9
    1db4:	0e 94 30 0a 	call	0x1460	; 0x1460 <_Z8pid_calci>
		}else if (!isRun && option != 'A')
		{
			if(!enableBT) {
				motors.stopMotors(); //Apaga los motores
			}else{
			while(max > 0){
    1db8:	80 91 12 01 	lds	r24, 0x0112
    1dbc:	81 11       	cpse	r24, r1
    1dbe:	b8 cf       	rjmp	.-144    	; 0x1d30 <main+0x1e4>
					delta=millis;
				}
				position = sensors.measureLine(sensorValues);
				pid_calc(setPoint);
			}
			TIMSK3 &= ~(1<<TOIE3);
    1dc0:	88 81       	ld	r24, Y
    1dc2:	8e 7f       	andi	r24, 0xFE	; 254
    1dc4:	88 83       	st	Y, r24
			//max=0;
			sensors.emittersEn(EMITTERS_OFF);	//Apaga los sensores
    1dc6:	60 e0       	ldi	r22, 0x00	; 0
    1dc8:	83 e4       	ldi	r24, 0x43	; 67
    1dca:	93 e0       	ldi	r25, 0x03	; 3
    1dcc:	0e 94 2d 05 	call	0xa5a	; 0xa5a <_ZN9IRSensors10emittersEnEb>
		    motors.stopMotors(); // apaga los motores
    1dd0:	88 e3       	ldi	r24, 0x38	; 56
    1dd2:	93 e0       	ldi	r25, 0x03	; 3
    1dd4:	0e 94 cd 12 	call	0x259a	; 0x259a <_ZN10Motors32u410stopMotorsEv>
			}
		}
		 if(enableBT==true && printPosition==true && isRun==false){
    1dd8:	80 91 63 03 	lds	r24, 0x0363
    1ddc:	88 23       	and	r24, r24
    1dde:	09 f4       	brne	.+2      	; 0x1de2 <main+0x296>
    1de0:	67 cf       	rjmp	.-306    	; 0x1cb0 <main+0x164>
    1de2:	80 91 62 03 	lds	r24, 0x0362
    1de6:	88 23       	and	r24, r24
    1de8:	09 f4       	brne	.+2      	; 0x1dec <main+0x2a0>
    1dea:	62 cf       	rjmp	.-316    	; 0x1cb0 <main+0x164>
    1dec:	80 91 7b 03 	lds	r24, 0x037B
    1df0:	81 11       	cpse	r24, r1
    1df2:	5e cf       	rjmp	.-324    	; 0x1cb0 <main+0x164>
    1df4:	5c c0       	rjmp	.+184    	; 0x1eae <main+0x362>
			 uart_print(bitRead(PINF,0));
			 uart_print("	");
			 uart_print(bitRead(PINF,1));
			 uart_print("	");
			for (i=0;i<NUM_SENSORS;i++){
				uart_print(sensorValues[i]);
    1df6:	88 0f       	add	r24, r24
    1df8:	99 1f       	adc	r25, r25
    1dfa:	fc 01       	movw	r30, r24
    1dfc:	e2 5b       	subi	r30, 0xB2	; 178
    1dfe:	fc 4f       	sbci	r31, 0xFC	; 252
    1e00:	60 e0       	ldi	r22, 0x00	; 0
    1e02:	80 81       	ld	r24, Z
    1e04:	91 81       	ldd	r25, Z+1	; 0x01
    1e06:	0e 94 cb 07 	call	0xf96	; 0xf96 <_Z10uart_printjh>
				uart_print("	");
    1e0a:	85 e4       	ldi	r24, 0x45	; 69
    1e0c:	91 e0       	ldi	r25, 0x01	; 1
    1e0e:	0e 94 1d 07 	call	0xe3a	; 0xe3a <_Z10uart_printPc>
			 position = sensors.measureLine(sensorValues);
			 uart_print(bitRead(PINF,0));
			 uart_print("	");
			 uart_print(bitRead(PINF,1));
			 uart_print("	");
			for (i=0;i<NUM_SENSORS;i++){
    1e12:	80 91 5f 03 	lds	r24, 0x035F
    1e16:	90 91 60 03 	lds	r25, 0x0360
    1e1a:	01 96       	adiw	r24, 0x01	; 1
    1e1c:	90 93 60 03 	sts	0x0360, r25
    1e20:	80 93 5f 03 	sts	0x035F, r24
    1e24:	84 30       	cpi	r24, 0x04	; 4
    1e26:	91 05       	cpc	r25, r1
    1e28:	30 f3       	brcs	.-52     	; 0x1df6 <main+0x2aa>
				uart_print(sensorValues[i]);
				uart_print("	");
			}
			uart_print(bitRead(PINC,7));
    1e2a:	86 b1       	in	r24, 0x06	; 6
    1e2c:	88 1f       	adc	r24, r24
    1e2e:	88 27       	eor	r24, r24
    1e30:	88 1f       	adc	r24, r24
    1e32:	60 e0       	ldi	r22, 0x00	; 0
    1e34:	90 e0       	ldi	r25, 0x00	; 0
    1e36:	0e 94 f8 07 	call	0xff0	; 0xff0 <_Z10uart_printih>
			uart_print("	");
    1e3a:	85 e4       	ldi	r24, 0x45	; 69
    1e3c:	91 e0       	ldi	r25, 0x01	; 1
    1e3e:	0e 94 1d 07 	call	0xe3a	; 0xe3a <_Z10uart_printPc>
			uart_print(bitRead(PINC,6));
    1e42:	86 b1       	in	r24, 0x06	; 6
    1e44:	60 e0       	ldi	r22, 0x00	; 0
    1e46:	86 fb       	bst	r24, 6
    1e48:	88 27       	eor	r24, r24
    1e4a:	80 f9       	bld	r24, 0
    1e4c:	90 e0       	ldi	r25, 0x00	; 0
    1e4e:	0e 94 f8 07 	call	0xff0	; 0xff0 <_Z10uart_printih>
			uart_println(position);
    1e52:	60 e0       	ldi	r22, 0x00	; 0
    1e54:	70 e0       	ldi	r23, 0x00	; 0
    1e56:	80 91 57 03 	lds	r24, 0x0357
    1e5a:	90 91 58 03 	lds	r25, 0x0358
    1e5e:	0e 94 25 08 	call	0x104a	; 0x104a <_Z12uart_printlnii>
    1e62:	8f e7       	ldi	r24, 0x7F	; 127
    1e64:	9f e4       	ldi	r25, 0x4F	; 79
    1e66:	22 e1       	ldi	r18, 0x12	; 18
    1e68:	81 50       	subi	r24, 0x01	; 1
    1e6a:	90 40       	sbci	r25, 0x00	; 0
    1e6c:	20 40       	sbci	r18, 0x00	; 0
    1e6e:	e1 f7       	brne	.-8      	; 0x1e68 <main+0x31c>
    1e70:	00 c0       	rjmp	.+0      	; 0x1e72 <main+0x326>
    1e72:	00 00       	nop
    1e74:	1d cf       	rjmp	.-454    	; 0x1cb0 <main+0x164>
			if(millis >= 300 && millis <= 310){
				max = VEL_MAX;
			}
			position = sensors.measureLine(sensorValues);
			pid_calc(setPoint);
		}else if (!isRun && option != 'A')
    1e76:	80 91 7b 03 	lds	r24, 0x037B
    1e7a:	81 11       	cpse	r24, r1
    1e7c:	ad cf       	rjmp	.-166    	; 0x1dd8 <main+0x28c>
    1e7e:	48 cf       	rjmp	.-368    	; 0x1d10 <main+0x1c4>
	max = VEL_INITIAL;
	isRun = true;
	for(;;) //Inicio del bucle infinito
	{
		if(isRun && isCalibrated && option != 'A'){
			if(millis >= 300 && millis <= 310){
    1e80:	80 91 6f 03 	lds	r24, 0x036F
    1e84:	90 91 70 03 	lds	r25, 0x0370
    1e88:	a0 91 71 03 	lds	r26, 0x0371
    1e8c:	b0 91 72 03 	lds	r27, 0x0372
    1e90:	8c 32       	cpi	r24, 0x2C	; 44
    1e92:	91 40       	sbci	r25, 0x01	; 1
    1e94:	a1 05       	cpc	r26, r1
    1e96:	b1 05       	cpc	r27, r1
    1e98:	08 f0       	brcs	.+2      	; 0x1e9c <main+0x350>
    1e9a:	1a cf       	rjmp	.-460    	; 0x1cd0 <main+0x184>
    1e9c:	27 cf       	rjmp	.-434    	; 0x1cec <main+0x1a0>
				max = VEL_MAX;
    1e9e:	10 93 12 01 	sts	0x0112, r17
    1ea2:	24 cf       	rjmp	.-440    	; 0x1cec <main+0x1a0>
			}
			position = sensors.measureLine(sensorValues);
			pid_calc(setPoint);
		}else if (!isRun && option != 'A')
		{
			if(!enableBT) {
    1ea4:	80 91 63 03 	lds	r24, 0x0363
    1ea8:	81 11       	cpse	r24, r1
    1eaa:	38 cf       	rjmp	.-400    	; 0x1d1c <main+0x1d0>
    1eac:	3c cf       	rjmp	.-392    	; 0x1d26 <main+0x1da>
			sensors.emittersEn(EMITTERS_OFF);	//Apaga los sensores
		    motors.stopMotors(); // apaga los motores
			}
		}
		 if(enableBT==true && printPosition==true && isRun==false){
			 sensors.emittersEn(EMITTERS_ON);	
    1eae:	61 e0       	ldi	r22, 0x01	; 1
    1eb0:	83 e4       	ldi	r24, 0x43	; 67
    1eb2:	93 e0       	ldi	r25, 0x03	; 3
    1eb4:	0e 94 2d 05 	call	0xa5a	; 0xa5a <_ZN9IRSensors10emittersEnEb>
			 position = sensors.measureLine(sensorValues);
    1eb8:	20 e0       	ldi	r18, 0x00	; 0
    1eba:	4c e3       	ldi	r20, 0x3C	; 60
    1ebc:	50 e0       	ldi	r21, 0x00	; 0
    1ebe:	6e e4       	ldi	r22, 0x4E	; 78
    1ec0:	73 e0       	ldi	r23, 0x03	; 3
    1ec2:	83 e4       	ldi	r24, 0x43	; 67
    1ec4:	93 e0       	ldi	r25, 0x03	; 3
    1ec6:	0e 94 68 04 	call	0x8d0	; 0x8d0 <_ZN9IRSensors11measureLineEPjjb>
    1eca:	90 93 58 03 	sts	0x0358, r25
    1ece:	80 93 57 03 	sts	0x0357, r24
			 uart_print(bitRead(PINF,0));
    1ed2:	8f b1       	in	r24, 0x0f	; 15
    1ed4:	60 e0       	ldi	r22, 0x00	; 0
    1ed6:	81 70       	andi	r24, 0x01	; 1
    1ed8:	90 e0       	ldi	r25, 0x00	; 0
    1eda:	0e 94 f8 07 	call	0xff0	; 0xff0 <_Z10uart_printih>
			 uart_print("	");
    1ede:	85 e4       	ldi	r24, 0x45	; 69
    1ee0:	91 e0       	ldi	r25, 0x01	; 1
    1ee2:	0e 94 1d 07 	call	0xe3a	; 0xe3a <_Z10uart_printPc>
			 uart_print(bitRead(PINF,1));
    1ee6:	8f b1       	in	r24, 0x0f	; 15
    1ee8:	60 e0       	ldi	r22, 0x00	; 0
    1eea:	86 95       	lsr	r24
    1eec:	81 70       	andi	r24, 0x01	; 1
    1eee:	90 e0       	ldi	r25, 0x00	; 0
    1ef0:	0e 94 f8 07 	call	0xff0	; 0xff0 <_Z10uart_printih>
			 uart_print("	");
    1ef4:	85 e4       	ldi	r24, 0x45	; 69
    1ef6:	91 e0       	ldi	r25, 0x01	; 1
    1ef8:	0e 94 1d 07 	call	0xe3a	; 0xe3a <_Z10uart_printPc>
			for (i=0;i<NUM_SENSORS;i++){
    1efc:	10 92 60 03 	sts	0x0360, r1
    1f00:	10 92 5f 03 	sts	0x035F, r1
    1f04:	80 e0       	ldi	r24, 0x00	; 0
    1f06:	90 e0       	ldi	r25, 0x00	; 0
    1f08:	76 cf       	rjmp	.-276    	; 0x1df6 <main+0x2aa>

00001f0a <__vector_20>:
				}
				break; 
	}

}
ISR(TIMER1_OVF_vect){
    1f0a:	1f 92       	push	r1
    1f0c:	0f 92       	push	r0
    1f0e:	0f b6       	in	r0, 0x3f	; 63
    1f10:	0f 92       	push	r0
    1f12:	11 24       	eor	r1, r1
    1f14:	2f 93       	push	r18
    1f16:	3f 93       	push	r19
    1f18:	4f 93       	push	r20
    1f1a:	5f 93       	push	r21
    1f1c:	6f 93       	push	r22
    1f1e:	7f 93       	push	r23
    1f20:	8f 93       	push	r24
    1f22:	9f 93       	push	r25
    1f24:	af 93       	push	r26
    1f26:	bf 93       	push	r27
    1f28:	cf 93       	push	r28
    1f2a:	df 93       	push	r29
    1f2c:	ef 93       	push	r30
    1f2e:	ff 93       	push	r31
	serialEvent();
    1f30:	0e 94 15 0a 	call	0x142a	; 0x142a <_Z11serialEventv>
	if (stringComplete==true && enableBT==true) {
    1f34:	80 91 64 03 	lds	r24, 0x0364
    1f38:	88 23       	and	r24, r24
    1f3a:	09 f4       	brne	.+2      	; 0x1f3e <__vector_20+0x34>
    1f3c:	53 c1       	rjmp	.+678    	; 0x21e4 <__vector_20+0x2da>
    1f3e:	80 91 63 03 	lds	r24, 0x0363
    1f42:	81 11       	cpse	r24, r1
    1f44:	3e c1       	rjmp	.+636    	; 0x21c2 <__vector_20+0x2b8>
    1f46:	4e c1       	rjmp	.+668    	; 0x21e4 <__vector_20+0x2da>
		static unsigned long ticksR,ticksL;
		uart_println("OK!");
		switch(inputString[0]){
			case '1':	calibrationSensors();	break; //Calibra sensores
    1f48:	0e 94 35 0c 	call	0x186a	; 0x186a <_Z18calibrationSensorsv>
    1f4c:	30 c1       	rjmp	.+608    	; 0x21ae <__vector_20+0x2a4>

class Analog {
	public:
	Analog();
	inline static void init(){
	ADCSRA = 0;
    1f4e:	ea e7       	ldi	r30, 0x7A	; 122
    1f50:	f0 e0       	ldi	r31, 0x00	; 0
    1f52:	10 82       	st	Z, r1
	ADMUX = 0;
    1f54:	ac e7       	ldi	r26, 0x7C	; 124
    1f56:	b0 e0       	ldi	r27, 0x00	; 0
    1f58:	1c 92       	st	X, r1
	ADCSRB = 0;
    1f5a:	cb e7       	ldi	r28, 0x7B	; 123
    1f5c:	d0 e0       	ldi	r29, 0x00	; 0
    1f5e:	18 82       	st	Y, r1
	ADCSRA |= (1 << ADPS2) | (1 << ADPS1); // prescalar = 64
    1f60:	80 81       	ld	r24, Z
    1f62:	86 60       	ori	r24, 0x06	; 6
    1f64:	80 83       	st	Z, r24
	ADMUX |= (1 << REFS0); // reference voltage from internal source
    1f66:	8c 91       	ld	r24, X
    1f68:	80 64       	ori	r24, 0x40	; 64
    1f6a:	8c 93       	st	X, r24
	ADCSRA |= (1 << ADEN); // enable ADC
    1f6c:	80 81       	ld	r24, Z
    1f6e:	80 68       	ori	r24, 0x80	; 128
    1f70:	80 83       	st	Z, r24
	DIDR0 |= ((1<<ADC5D) | (1<<ADC6D) | (1<<ADC7D) | (1<<ADC4D)); //Deshabilita la funcion digital de los pines analogos
    1f72:	ae e7       	ldi	r26, 0x7E	; 126
    1f74:	b0 e0       	ldi	r27, 0x00	; 0
    1f76:	8c 91       	ld	r24, X
    1f78:	80 6f       	ori	r24, 0xF0	; 240
    1f7a:	8c 93       	st	X, r24
	//Deshabilitar JTAG para usar el puerto F. (Si no deshabilita el ADC no lee valores por debajo de 200)
	MCUCR |= (1<<JTD);
    1f7c:	85 b7       	in	r24, 0x35	; 53
    1f7e:	80 68       	ori	r24, 0x80	; 128
    1f80:	85 bf       	out	0x35, r24	; 53
	MCUCR |= (1<<JTD);
    1f82:	85 b7       	in	r24, 0x35	; 53
    1f84:	80 68       	ori	r24, 0x80	; 128
    1f86:	85 bf       	out	0x35, r24	; 53
	ADCSRA |= (1<<ADHSM);
    1f88:	80 81       	ld	r24, Z
    1f8a:	80 68       	ori	r24, 0x80	; 128
    1f8c:	80 83       	st	Z, r24
	ADCSRB = 0;
    1f8e:	18 82       	st	Y, r1
	ADCSRA |= (1 << ADSC); // start A2D conversions
    1f90:	80 81       	ld	r24, Z
    1f92:	80 64       	ori	r24, 0x40	; 64
    1f94:	80 83       	st	Z, r24
			case '2':		Analog::init(); for(i=0;i<5;i++){readBattery(); _delay_ms(10);}
    1f96:	10 92 60 03 	sts	0x0360, r1
    1f9a:	10 92 5f 03 	sts	0x035F, r1
    1f9e:	0e 94 98 09 	call	0x1330	; 0x1330 <_Z11readBatteryv>
    1fa2:	8f e2       	ldi	r24, 0x2F	; 47
    1fa4:	95 e7       	ldi	r25, 0x75	; 117
    1fa6:	01 97       	sbiw	r24, 0x01	; 1
    1fa8:	f1 f7       	brne	.-4      	; 0x1fa6 <__vector_20+0x9c>
    1faa:	00 c0       	rjmp	.+0      	; 0x1fac <__vector_20+0xa2>
    1fac:	00 00       	nop
    1fae:	80 91 5f 03 	lds	r24, 0x035F
    1fb2:	90 91 60 03 	lds	r25, 0x0360
    1fb6:	01 96       	adiw	r24, 0x01	; 1
    1fb8:	90 93 60 03 	sts	0x0360, r25
    1fbc:	80 93 5f 03 	sts	0x035F, r24
    1fc0:	05 97       	sbiw	r24, 0x05	; 5
    1fc2:	68 f3       	brcs	.-38     	; 0x1f9e <__vector_20+0x94>
			 uart_print("Vbat:"); uart_print(volt_battery,3); uart_println(" V"); break; //Lee el voltaje de la bateria
    1fc4:	8b e5       	ldi	r24, 0x5B	; 91
    1fc6:	92 e0       	ldi	r25, 0x02	; 2
    1fc8:	0e 94 1d 07 	call	0xe3a	; 0xe3a <_Z10uart_printPc>
    1fcc:	60 91 59 03 	lds	r22, 0x0359
    1fd0:	70 91 5a 03 	lds	r23, 0x035A
    1fd4:	80 91 5b 03 	lds	r24, 0x035B
    1fd8:	90 91 5c 03 	lds	r25, 0x035C
    1fdc:	43 e0       	ldi	r20, 0x03	; 3
    1fde:	0e 94 64 07 	call	0xec8	; 0xec8 <_Z10uart_printdh>
    1fe2:	8e e2       	ldi	r24, 0x2E	; 46
    1fe4:	92 e0       	ldi	r25, 0x02	; 2
    1fe6:	0e 94 59 07 	call	0xeb2	; 0xeb2 <_Z12uart_printlnPc>
    1fea:	e1 c0       	rjmp	.+450    	; 0x21ae <__vector_20+0x2a4>
			case '3':	uart_print("Vel. inicial:"); uart_println(VEL_INITIAL); //Inicia el recorrido
    1fec:	81 e6       	ldi	r24, 0x61	; 97
    1fee:	92 e0       	ldi	r25, 0x02	; 2
    1ff0:	0e 94 1d 07 	call	0xe3a	; 0xe3a <_Z10uart_printPc>
    1ff4:	60 e0       	ldi	r22, 0x00	; 0
    1ff6:	70 e0       	ldi	r23, 0x00	; 0
    1ff8:	80 e5       	ldi	r24, 0x50	; 80
    1ffa:	90 e0       	ldi	r25, 0x00	; 0
    1ffc:	0e 94 25 08 	call	0x104a	; 0x104a <_Z12uart_printlnii>
			uart_print("Vel. max:"); uart_println(VEL_MAX);
    2000:	8f e6       	ldi	r24, 0x6F	; 111
    2002:	92 e0       	ldi	r25, 0x02	; 2
    2004:	0e 94 1d 07 	call	0xe3a	; 0xe3a <_Z10uart_printPc>
    2008:	60 e0       	ldi	r22, 0x00	; 0
    200a:	70 e0       	ldi	r23, 0x00	; 0
    200c:	88 e7       	ldi	r24, 0x78	; 120
    200e:	90 e0       	ldi	r25, 0x00	; 0
    2010:	0e 94 25 08 	call	0x104a	; 0x104a <_Z12uart_printlnii>
			uart_print("Vel. rectas:"); uart_println(VEL_RECTAS);
    2014:	89 e7       	ldi	r24, 0x79	; 121
    2016:	92 e0       	ldi	r25, 0x02	; 2
    2018:	0e 94 1d 07 	call	0xe3a	; 0xe3a <_Z10uart_printPc>
    201c:	60 e0       	ldi	r22, 0x00	; 0
    201e:	70 e0       	ldi	r23, 0x00	; 0
    2020:	86 e9       	ldi	r24, 0x96	; 150
    2022:	90 e0       	ldi	r25, 0x00	; 0
    2024:	0e 94 25 08 	call	0x104a	; 0x104a <_Z12uart_printlnii>
			uart_println("\nReady...!"); isRun=true; option = 0; sensors.emittersEn(EMITTERS_ON);
    2028:	86 e8       	ldi	r24, 0x86	; 134
    202a:	92 e0       	ldi	r25, 0x02	; 2
    202c:	0e 94 59 07 	call	0xeb2	; 0xeb2 <_Z12uart_printlnPc>
    2030:	c1 e0       	ldi	r28, 0x01	; 1
    2032:	c0 93 7b 03 	sts	0x037B, r28
    2036:	10 92 61 03 	sts	0x0361, r1
    203a:	61 e0       	ldi	r22, 0x01	; 1
    203c:	83 e4       	ldi	r24, 0x43	; 67
    203e:	93 e0       	ldi	r25, 0x03	; 3
    2040:	0e 94 2d 05 	call	0xa5a	; 0xa5a <_ZN9IRSensors10emittersEnEb>
			enableBT = true;
    2044:	c0 93 63 03 	sts	0x0363, r28
    2048:	9f ef       	ldi	r25, 0xFF	; 255
    204a:	ae e9       	ldi	r26, 0x9E	; 158
    204c:	b4 e2       	ldi	r27, 0x24	; 36
    204e:	91 50       	subi	r25, 0x01	; 1
    2050:	a0 40       	sbci	r26, 0x00	; 0
    2052:	b0 40       	sbci	r27, 0x00	; 0
    2054:	e1 f7       	brne	.-8      	; 0x204e <__vector_20+0x144>
    2056:	00 c0       	rjmp	.+0      	; 0x2058 <__vector_20+0x14e>
    2058:	00 00       	nop
    205a:	a9 c0       	rjmp	.+338    	; 0x21ae <__vector_20+0x2a4>
			_delay_ms(TIME_START);
			break;
			case '4':	for (i=0;i<7;i++)
    205c:	10 92 60 03 	sts	0x0360, r1
    2060:	10 92 5f 03 	sts	0x035F, r1
			{
				uart_print(GetTemp());
    2064:	0e 94 62 09 	call	0x12c4	; 0x12c4 <_Z7GetTempv>
    2068:	60 e0       	ldi	r22, 0x00	; 0
    206a:	0e 94 f8 07 	call	0xff0	; 0xff0 <_Z10uart_printih>
				uart_println(" C");
    206e:	82 e0       	ldi	r24, 0x02	; 2
    2070:	92 e0       	ldi	r25, 0x02	; 2
    2072:	0e 94 59 07 	call	0xeb2	; 0xeb2 <_Z12uart_printlnPc>
    2076:	2f e7       	ldi	r18, 0x7F	; 127
    2078:	8f e4       	ldi	r24, 0x4F	; 79
    207a:	92 e1       	ldi	r25, 0x12	; 18
    207c:	21 50       	subi	r18, 0x01	; 1
    207e:	80 40       	sbci	r24, 0x00	; 0
    2080:	90 40       	sbci	r25, 0x00	; 0
    2082:	e1 f7       	brne	.-8      	; 0x207c <__vector_20+0x172>
    2084:	00 c0       	rjmp	.+0      	; 0x2086 <__vector_20+0x17c>
    2086:	00 00       	nop
			uart_print("Vel. rectas:"); uart_println(VEL_RECTAS);
			uart_println("\nReady...!"); isRun=true; option = 0; sensors.emittersEn(EMITTERS_ON);
			enableBT = true;
			_delay_ms(TIME_START);
			break;
			case '4':	for (i=0;i<7;i++)
    2088:	80 91 5f 03 	lds	r24, 0x035F
    208c:	90 91 60 03 	lds	r25, 0x0360
    2090:	01 96       	adiw	r24, 0x01	; 1
    2092:	90 93 60 03 	sts	0x0360, r25
    2096:	80 93 5f 03 	sts	0x035F, r24
    209a:	07 97       	sbiw	r24, 0x07	; 7
    209c:	18 f3       	brcs	.-58     	; 0x2064 <__vector_20+0x15a>
    209e:	87 c0       	rjmp	.+270    	; 0x21ae <__vector_20+0x2a4>
				uart_println(" C");
				_delay_ms(500);
			}
			break;
			case 'A':   
			TIMSK3 &= ~(1<<TOIE3);  //Desactiva las interrupciones
    20a0:	e1 e7       	ldi	r30, 0x71	; 113
    20a2:	f0 e0       	ldi	r31, 0x00	; 0
    20a4:	80 81       	ld	r24, Z
    20a6:	8e 7f       	andi	r24, 0xFE	; 254
    20a8:	80 83       	st	Z, r24
			ticksL = ticksEncoderL; //Obtiene los ticks
    20aa:	80 91 77 03 	lds	r24, 0x0377
    20ae:	90 91 78 03 	lds	r25, 0x0378
    20b2:	a0 91 79 03 	lds	r26, 0x0379
    20b6:	b0 91 7a 03 	lds	r27, 0x037A
    20ba:	80 93 2e 03 	sts	0x032E, r24
    20be:	90 93 2f 03 	sts	0x032F, r25
    20c2:	a0 93 30 03 	sts	0x0330, r26
    20c6:	b0 93 31 03 	sts	0x0331, r27
			ticksR = ticksEncoderR;
    20ca:	80 91 73 03 	lds	r24, 0x0373
    20ce:	90 91 74 03 	lds	r25, 0x0374
    20d2:	a0 91 75 03 	lds	r26, 0x0375
    20d6:	b0 91 76 03 	lds	r27, 0x0376
    20da:	80 93 2a 03 	sts	0x032A, r24
    20de:	90 93 2b 03 	sts	0x032B, r25
    20e2:	a0 93 2c 03 	sts	0x032C, r26
    20e6:	b0 93 2d 03 	sts	0x032D, r27
			TIMSK3 |= (1<<TOIE3);
    20ea:	80 81       	ld	r24, Z
    20ec:	81 60       	ori	r24, 0x01	; 1
    20ee:	80 83       	st	Z, r24
			uart_print("*Ticks Right:");
    20f0:	81 e9       	ldi	r24, 0x91	; 145
    20f2:	92 e0       	ldi	r25, 0x02	; 2
    20f4:	0e 94 1d 07 	call	0xe3a	; 0xe3a <_Z10uart_printPc>
			uart_print(ticksR);
    20f8:	60 91 2a 03 	lds	r22, 0x032A
    20fc:	70 91 2b 03 	lds	r23, 0x032B
    2100:	80 91 2c 03 	lds	r24, 0x032C
    2104:	90 91 2d 03 	lds	r25, 0x032D
    2108:	40 e0       	ldi	r20, 0x00	; 0
    210a:	0e 94 2c 07 	call	0xe58	; 0xe58 <_Z10uart_printmh>
			uart_print(" *Ticks Left:");
    210e:	8f e9       	ldi	r24, 0x9F	; 159
    2110:	92 e0       	ldi	r25, 0x02	; 2
    2112:	0e 94 1d 07 	call	0xe3a	; 0xe3a <_Z10uart_printPc>
			uart_print(ticksL);
    2116:	60 91 2e 03 	lds	r22, 0x032E
    211a:	70 91 2f 03 	lds	r23, 0x032F
    211e:	80 91 30 03 	lds	r24, 0x0330
    2122:	90 91 31 03 	lds	r25, 0x0331
    2126:	40 e0       	ldi	r20, 0x00	; 0
    2128:	0e 94 2c 07 	call	0xe58	; 0xe58 <_Z10uart_printmh>
			uart_println(" ");
    212c:	8f ea       	ldi	r24, 0xAF	; 175
    212e:	91 e0       	ldi	r25, 0x01	; 1
    2130:	0e 94 59 07 	call	0xeb2	; 0xeb2 <_Z12uart_printlnPc>
			break;
    2134:	3c c0       	rjmp	.+120    	; 0x21ae <__vector_20+0x2a4>
			case 'B':
				if(isRun){
    2136:	80 91 7b 03 	lds	r24, 0x037B
    213a:	88 23       	and	r24, r24
    213c:	29 f0       	breq	.+10     	; 0x2148 <__vector_20+0x23e>
					uart_println("*Frenando el robot...");
    213e:	8d ea       	ldi	r24, 0xAD	; 173
    2140:	92 e0       	ldi	r25, 0x02	; 2
    2142:	0e 94 59 07 	call	0xeb2	; 0xeb2 <_Z12uart_printlnPc>
    2146:	19 c0       	rjmp	.+50     	; 0x217a <__vector_20+0x270>
				}
				else {uart_println("*Activando el robot...");
    2148:	83 ec       	ldi	r24, 0xC3	; 195
    214a:	92 e0       	ldi	r25, 0x02	; 2
    214c:	0e 94 59 07 	call	0xeb2	; 0xeb2 <_Z12uart_printlnPc>
					max = VEL_INITIAL;
    2150:	80 e5       	ldi	r24, 0x50	; 80
    2152:	80 93 12 01 	sts	0x0112, r24
					millis=0;
    2156:	10 92 6f 03 	sts	0x036F, r1
    215a:	10 92 70 03 	sts	0x0370, r1
    215e:	10 92 71 03 	sts	0x0371, r1
    2162:	10 92 72 03 	sts	0x0372, r1
					TIMSK3 |= (1<<TOIE3);
    2166:	e1 e7       	ldi	r30, 0x71	; 113
    2168:	f0 e0       	ldi	r31, 0x00	; 0
    216a:	80 81       	ld	r24, Z
    216c:	81 60       	ori	r24, 0x01	; 1
    216e:	80 83       	st	Z, r24
					sensors.emittersEn(EMITTERS_ON);
    2170:	61 e0       	ldi	r22, 0x01	; 1
    2172:	83 e4       	ldi	r24, 0x43	; 67
    2174:	93 e0       	ldi	r25, 0x03	; 3
    2176:	0e 94 2d 05 	call	0xa5a	; 0xa5a <_ZN9IRSensors10emittersEnEb>
				}
					isRun = !isRun; //Parar el robot
    217a:	90 91 7b 03 	lds	r25, 0x037B
    217e:	81 e0       	ldi	r24, 0x01	; 1
    2180:	89 27       	eor	r24, r25
    2182:	80 93 7b 03 	sts	0x037B, r24
			break;
    2186:	13 c0       	rjmp	.+38     	; 0x21ae <__vector_20+0x2a4>
			case 'C':
					if (!printPosition) uart_println("*Ativando printPosition...");
    2188:	80 91 62 03 	lds	r24, 0x0362
    218c:	81 11       	cpse	r24, r1
    218e:	05 c0       	rjmp	.+10     	; 0x219a <__vector_20+0x290>
    2190:	8a ed       	ldi	r24, 0xDA	; 218
    2192:	92 e0       	ldi	r25, 0x02	; 2
    2194:	0e 94 59 07 	call	0xeb2	; 0xeb2 <_Z12uart_printlnPc>
    2198:	04 c0       	rjmp	.+8      	; 0x21a2 <__vector_20+0x298>
						else uart_println("*Desactivando printPosition...");
    219a:	85 ef       	ldi	r24, 0xF5	; 245
    219c:	92 e0       	ldi	r25, 0x02	; 2
    219e:	0e 94 59 07 	call	0xeb2	; 0xeb2 <_Z12uart_printlnPc>
					printPosition = !printPosition;
    21a2:	90 91 62 03 	lds	r25, 0x0362
    21a6:	81 e0       	ldi	r24, 0x01	; 1
    21a8:	89 27       	eor	r24, r25
    21aa:	80 93 62 03 	sts	0x0362, r24
			break;
			
		}
		//Limipiar entrada
		memset(inputString,0,CANTIDAD_ELEMENTOS(inputString));
    21ae:	8a e0       	ldi	r24, 0x0A	; 10
    21b0:	e5 e6       	ldi	r30, 0x65	; 101
    21b2:	f3 e0       	ldi	r31, 0x03	; 3
    21b4:	df 01       	movw	r26, r30
    21b6:	1d 92       	st	X+, r1
    21b8:	8a 95       	dec	r24
    21ba:	e9 f7       	brne	.-6      	; 0x21b6 <__vector_20+0x2ac>
		stringComplete = false;
    21bc:	10 92 64 03 	sts	0x0364, r1
    21c0:	11 c0       	rjmp	.+34     	; 0x21e4 <__vector_20+0x2da>
}
ISR(TIMER1_OVF_vect){
	serialEvent();
	if (stringComplete==true && enableBT==true) {
		static unsigned long ticksR,ticksL;
		uart_println("OK!");
    21c2:	84 e1       	ldi	r24, 0x14	; 20
    21c4:	93 e0       	ldi	r25, 0x03	; 3
    21c6:	0e 94 59 07 	call	0xeb2	; 0xeb2 <_Z12uart_printlnPc>
		switch(inputString[0]){
    21ca:	e0 91 65 03 	lds	r30, 0x0365
    21ce:	8e 2f       	mov	r24, r30
    21d0:	90 e0       	ldi	r25, 0x00	; 0
    21d2:	fc 01       	movw	r30, r24
    21d4:	f1 97       	sbiw	r30, 0x31	; 49
    21d6:	e3 31       	cpi	r30, 0x13	; 19
    21d8:	f1 05       	cpc	r31, r1
    21da:	48 f7       	brcc	.-46     	; 0x21ae <__vector_20+0x2a4>
    21dc:	ea 5a       	subi	r30, 0xAA	; 170
    21de:	ff 4f       	sbci	r31, 0xFF	; 255
    21e0:	0c 94 20 19 	jmp	0x3240	; 0x3240 <__tablejump2__>
		}
		//Limipiar entrada
		memset(inputString,0,CANTIDAD_ELEMENTOS(inputString));
		stringComplete = false;
	}
}
    21e4:	ff 91       	pop	r31
    21e6:	ef 91       	pop	r30
    21e8:	df 91       	pop	r29
    21ea:	cf 91       	pop	r28
    21ec:	bf 91       	pop	r27
    21ee:	af 91       	pop	r26
    21f0:	9f 91       	pop	r25
    21f2:	8f 91       	pop	r24
    21f4:	7f 91       	pop	r23
    21f6:	6f 91       	pop	r22
    21f8:	5f 91       	pop	r21
    21fa:	4f 91       	pop	r20
    21fc:	3f 91       	pop	r19
    21fe:	2f 91       	pop	r18
    2200:	0f 90       	pop	r0
    2202:	0f be       	out	0x3f, r0	; 63
    2204:	0f 90       	pop	r0
    2206:	1f 90       	pop	r1
    2208:	18 95       	reti

0000220a <_GLOBAL__sub_I__Z8initUARTm>:
unsigned int sensorValues[NUM_SENSORS]; //Vector para almacenar los valores de los sensores
unsigned char pinsSensors[] = {4,5,6,7}; //Pone los canales para realizar la lectura analogica
//Vector de punteros
unsigned char* pinsMotors[] = {(unsigned  char*) &OCR0A,(unsigned  char*) &OCR0B,(unsigned char*) &OCR1A,(unsigned char*) &OCR1B};//Asigna las direcciones de memoria de los registros de salida PWM
//Crea los objetos de cada clase
IRSensors sensors;
    220a:	83 e4       	ldi	r24, 0x43	; 67
    220c:	93 e0       	ldi	r25, 0x03	; 3
    220e:	0e 94 16 01 	call	0x22c	; 0x22c <_ZN9IRSensorsC1Ev>
Motors32u4 motors;
    2212:	88 e3       	ldi	r24, 0x38	; 56
    2214:	93 e0       	ldi	r25, 0x03	; 3
    2216:	0e 94 17 11 	call	0x222e	; 0x222e <_ZN10Motors32u4C1Ev>
    221a:	08 95       	ret

0000221c <_GLOBAL__sub_D__Z8initUARTm>:
    221c:	88 e3       	ldi	r24, 0x38	; 56
    221e:	93 e0       	ldi	r25, 0x03	; 3
    2220:	0e 94 d8 12 	call	0x25b0	; 0x25b0 <_ZN10Motors32u4D1Ev>
unsigned int sensorValues[NUM_SENSORS]; //Vector para almacenar los valores de los sensores
unsigned char pinsSensors[] = {4,5,6,7}; //Pone los canales para realizar la lectura analogica
//Vector de punteros
unsigned char* pinsMotors[] = {(unsigned  char*) &OCR0A,(unsigned  char*) &OCR0B,(unsigned char*) &OCR1A,(unsigned char*) &OCR1B};//Asigna las direcciones de memoria de los registros de salida PWM
//Crea los objetos de cada clase
IRSensors sensors;
    2224:	83 e4       	ldi	r24, 0x43	; 67
    2226:	93 e0       	ldi	r25, 0x03	; 3
    2228:	0e 94 bc 06 	call	0xd78	; 0xd78 <_ZN9IRSensorsD1Ev>
    222c:	08 95       	ret

0000222e <_ZN10Motors32u4C1Ev>:

}*/

// default constructor
Motors32u4::Motors32u4(){
	initialize = false;
    222e:	fc 01       	movw	r30, r24
    2230:	12 86       	std	Z+10, r1	; 0x0a
    2232:	08 95       	ret

00002234 <_ZN10Motors32u44initEPPh14prescalerTimerb>:
} //Motors32u4
void Motors32u4::init(unsigned char *pins[],prescalerTimer prescaler,bool modePWM)
{	cli();
    2234:	af 92       	push	r10
    2236:	bf 92       	push	r11
    2238:	cf 92       	push	r12
    223a:	df 92       	push	r13
    223c:	ef 92       	push	r14
    223e:	ff 92       	push	r15
    2240:	0f 93       	push	r16
    2242:	1f 93       	push	r17
    2244:	cf 93       	push	r28
    2246:	df 93       	push	r29
    2248:	5c 01       	movw	r10, r24
    224a:	f8 94       	cli
	static bool timer0,timer1,timer3;
	initialize = false;
    224c:	dc 01       	movw	r26, r24
    224e:	1a 96       	adiw	r26, 0x0a	; 10
    2250:	1c 92       	st	X, r1
	TCCR0A = TCCR1A = TCCR3A = 0;
    2252:	10 92 90 00 	sts	0x0090, r1
    2256:	10 92 80 00 	sts	0x0080, r1
    225a:	14 bc       	out	0x24, r1	; 36
	TCCR0B = TCCR1B = TCCR3B = 0;
    225c:	10 92 91 00 	sts	0x0091, r1
    2260:	10 92 81 00 	sts	0x0081, r1
    2264:	15 bc       	out	0x25, r1	; 37
    2266:	db 01       	movw	r26, r22
    2268:	8b 01       	movw	r16, r22
    226a:	08 5f       	subi	r16, 0xF8	; 248
    226c:	1f 4f       	sbci	r17, 0xFF	; 255
	for (unsigned char i=0;i<4;i++)
	{
		if(pins[i] == (unsigned char*)&OCR0A){
			TCCR0A |= (1<<COM0A0) | (1<<COM0A1);
			Digital::setOutput(IO_PB7,LOW);
			timer0=true;
    226e:	31 e0       	ldi	r19, 0x01	; 1
			TCCR0A |= (1<<COM0B0) | (1<<COM0B1);
			Digital::setOutput(IO_PD0,LOW);
			timer0=true;
		}
		if(pins[i] == (unsigned char*)&OCR1A) {
			TCCR1A |= (1<<COM1A0) | (1<<COM1A1);
    2270:	68 94       	set
    2272:	ee 24       	eor	r14, r14
    2274:	e7 f8       	bld	r14, 7
    2276:	f1 2c       	mov	r15, r1
			TCCR1A |= (1<<COM1C0) | (1<<COM1C1);
			timer1=true;
		}
		if(pins[i] == (unsigned char*)&OCR3A){
			Digital::setOutput(IO_PC6,LOW);
			TCCR3A |= (1<<COM3A0) | (1<<COM3A1);
    2278:	0f 2e       	mov	r0, r31
    227a:	f0 e9       	ldi	r31, 0x90	; 144
    227c:	cf 2e       	mov	r12, r31
    227e:	d1 2c       	mov	r13, r1
    2280:	f0 2d       	mov	r31, r0
    2282:	fd 01       	movw	r30, r26
	initialize = false;
	TCCR0A = TCCR1A = TCCR3A = 0;
	TCCR0B = TCCR1B = TCCR3B = 0;
	for (unsigned char i=0;i<4;i++)
	{
		if(pins[i] == (unsigned char*)&OCR0A){
    2284:	8d 91       	ld	r24, X+
    2286:	9c 91       	ld	r25, X
    2288:	11 97       	sbiw	r26, 0x01	; 1
    228a:	87 34       	cpi	r24, 0x47	; 71
    228c:	91 05       	cpc	r25, r1
    228e:	39 f4       	brne	.+14     	; 0x229e <_ZN10Motors32u44initEPPh14prescalerTimerb+0x6a>
			TCCR0A |= (1<<COM0A0) | (1<<COM0A1);
    2290:	84 b5       	in	r24, 0x24	; 36
    2292:	80 6c       	ori	r24, 0xC0	; 192
    2294:	84 bd       	out	0x24, r24	; 36
		if (val == 0xFF)
		*(ioPin->portRegister) ^= ioPin->bitmask;
		else if (val)
		*(ioPin->portRegister) |= ioPin->bitmask;
		else
		*(ioPin->portRegister) &= ~ioPin->bitmask;
    2296:	2f 98       	cbi	0x05, 7	; 5
	// low-level method for setting the data direction (i.e. input or output) of an pin or set of pins
	// described by an IOStruct pointer.
	inline static void setDataDirection(struct IOStruct* ioPin, unsigned char val)
	{
		if (val)
		*(ioPin->ddrRegister) |= ioPin->bitmask;
    2298:	27 9a       	sbi	0x04, 7	; 4
			Digital::setOutput(IO_PB7,LOW);
			timer0=true;
    229a:	30 93 46 04 	sts	0x0446, r19
		}
		if(pins[i] == (unsigned char*)&OCR0B){
    229e:	80 81       	ld	r24, Z
    22a0:	91 81       	ldd	r25, Z+1	; 0x01
    22a2:	88 34       	cpi	r24, 0x48	; 72
    22a4:	91 05       	cpc	r25, r1
    22a6:	39 f4       	brne	.+14     	; 0x22b6 <_ZN10Motors32u44initEPPh14prescalerTimerb+0x82>
			TCCR0A |= (1<<COM0B0) | (1<<COM0B1);
    22a8:	84 b5       	in	r24, 0x24	; 36
    22aa:	80 63       	ori	r24, 0x30	; 48
    22ac:	84 bd       	out	0x24, r24	; 36
		if (val == 0xFF)
		*(ioPin->portRegister) ^= ioPin->bitmask;
		else if (val)
		*(ioPin->portRegister) |= ioPin->bitmask;
		else
		*(ioPin->portRegister) &= ~ioPin->bitmask;
    22ae:	58 98       	cbi	0x0b, 0	; 11
	// low-level method for setting the data direction (i.e. input or output) of an pin or set of pins
	// described by an IOStruct pointer.
	inline static void setDataDirection(struct IOStruct* ioPin, unsigned char val)
	{
		if (val)
		*(ioPin->ddrRegister) |= ioPin->bitmask;
    22b0:	50 9a       	sbi	0x0a, 0	; 10
			Digital::setOutput(IO_PD0,LOW);
			timer0=true;
    22b2:	30 93 46 04 	sts	0x0446, r19
		}
		if(pins[i] == (unsigned char*)&OCR1A) {
    22b6:	80 81       	ld	r24, Z
    22b8:	91 81       	ldd	r25, Z+1	; 0x01
    22ba:	88 38       	cpi	r24, 0x88	; 136
    22bc:	91 05       	cpc	r25, r1
    22be:	41 f4       	brne	.+16     	; 0x22d0 <_ZN10Motors32u44initEPPh14prescalerTimerb+0x9c>
			TCCR1A |= (1<<COM1A0) | (1<<COM1A1);
    22c0:	e7 01       	movw	r28, r14
    22c2:	88 81       	ld	r24, Y
    22c4:	80 6c       	ori	r24, 0xC0	; 192
    22c6:	88 83       	st	Y, r24
		if (val == 0xFF)
		*(ioPin->portRegister) ^= ioPin->bitmask;
		else if (val)
		*(ioPin->portRegister) |= ioPin->bitmask;
		else
		*(ioPin->portRegister) &= ~ioPin->bitmask;
    22c8:	2d 98       	cbi	0x05, 5	; 5
	// low-level method for setting the data direction (i.e. input or output) of an pin or set of pins
	// described by an IOStruct pointer.
	inline static void setDataDirection(struct IOStruct* ioPin, unsigned char val)
	{
		if (val)
		*(ioPin->ddrRegister) |= ioPin->bitmask;
    22ca:	25 9a       	sbi	0x04, 5	; 4
			Digital::setOutput(IO_PB5,LOW);
			timer1=true;
    22cc:	30 93 45 04 	sts	0x0445, r19
		}
		if(pins[i] == (unsigned char*)&OCR1B){
    22d0:	80 81       	ld	r24, Z
    22d2:	91 81       	ldd	r25, Z+1	; 0x01
    22d4:	8a 38       	cpi	r24, 0x8A	; 138
    22d6:	91 05       	cpc	r25, r1
    22d8:	41 f4       	brne	.+16     	; 0x22ea <_ZN10Motors32u44initEPPh14prescalerTimerb+0xb6>
			TCCR1A |= (1<<COM1B0) | (1<<COM1B1);
    22da:	e7 01       	movw	r28, r14
    22dc:	88 81       	ld	r24, Y
    22de:	80 63       	ori	r24, 0x30	; 48
    22e0:	88 83       	st	Y, r24
		if (val == 0xFF)
		*(ioPin->portRegister) ^= ioPin->bitmask;
		else if (val)
		*(ioPin->portRegister) |= ioPin->bitmask;
		else
		*(ioPin->portRegister) &= ~ioPin->bitmask;
    22e2:	2e 98       	cbi	0x05, 6	; 5
	// low-level method for setting the data direction (i.e. input or output) of an pin or set of pins
	// described by an IOStruct pointer.
	inline static void setDataDirection(struct IOStruct* ioPin, unsigned char val)
	{
		if (val)
		*(ioPin->ddrRegister) |= ioPin->bitmask;
    22e4:	26 9a       	sbi	0x04, 6	; 4
			Digital::setOutput(IO_PB6,LOW);
			timer1=true;
    22e6:	30 93 45 04 	sts	0x0445, r19
		}
		if(pins[i] == (unsigned char*)&OCR1C){
    22ea:	80 81       	ld	r24, Z
    22ec:	91 81       	ldd	r25, Z+1	; 0x01
    22ee:	8c 38       	cpi	r24, 0x8C	; 140
    22f0:	91 05       	cpc	r25, r1
    22f2:	41 f4       	brne	.+16     	; 0x2304 <_ZN10Motors32u44initEPPh14prescalerTimerb+0xd0>
		if (val == 0xFF)
		*(ioPin->portRegister) ^= ioPin->bitmask;
		else if (val)
		*(ioPin->portRegister) |= ioPin->bitmask;
		else
		*(ioPin->portRegister) &= ~ioPin->bitmask;
    22f4:	2f 98       	cbi	0x05, 7	; 5
	// low-level method for setting the data direction (i.e. input or output) of an pin or set of pins
	// described by an IOStruct pointer.
	inline static void setDataDirection(struct IOStruct* ioPin, unsigned char val)
	{
		if (val)
		*(ioPin->ddrRegister) |= ioPin->bitmask;
    22f6:	27 9a       	sbi	0x04, 7	; 4
			Digital::setOutput(IO_PB7,LOW);
			TCCR1A |= (1<<COM1C0) | (1<<COM1C1);
    22f8:	e7 01       	movw	r28, r14
    22fa:	88 81       	ld	r24, Y
    22fc:	8c 60       	ori	r24, 0x0C	; 12
    22fe:	88 83       	st	Y, r24
			timer1=true;
    2300:	30 93 45 04 	sts	0x0445, r19
    2304:	12 96       	adiw	r26, 0x02	; 2
		}
		if(pins[i] == (unsigned char*)&OCR3A){
    2306:	80 81       	ld	r24, Z
    2308:	91 81       	ldd	r25, Z+1	; 0x01
    230a:	88 39       	cpi	r24, 0x98	; 152
    230c:	91 05       	cpc	r25, r1
    230e:	41 f4       	brne	.+16     	; 0x2320 <_ZN10Motors32u44initEPPh14prescalerTimerb+0xec>
		if (val == 0xFF)
		*(ioPin->portRegister) ^= ioPin->bitmask;
		else if (val)
		*(ioPin->portRegister) |= ioPin->bitmask;
		else
		*(ioPin->portRegister) &= ~ioPin->bitmask;
    2310:	46 98       	cbi	0x08, 6	; 8
	// low-level method for setting the data direction (i.e. input or output) of an pin or set of pins
	// described by an IOStruct pointer.
	inline static void setDataDirection(struct IOStruct* ioPin, unsigned char val)
	{
		if (val)
		*(ioPin->ddrRegister) |= ioPin->bitmask;
    2312:	3e 9a       	sbi	0x07, 6	; 7
			Digital::setOutput(IO_PC6,LOW);
			TCCR3A |= (1<<COM3A0) | (1<<COM3A1);
    2314:	f6 01       	movw	r30, r12
    2316:	80 81       	ld	r24, Z
    2318:	80 6c       	ori	r24, 0xC0	; 192
    231a:	80 83       	st	Z, r24
			timer3 = true;
    231c:	30 93 44 04 	sts	0x0444, r19
{	cli();
	static bool timer0,timer1,timer3;
	initialize = false;
	TCCR0A = TCCR1A = TCCR3A = 0;
	TCCR0B = TCCR1B = TCCR3B = 0;
	for (unsigned char i=0;i<4;i++)
    2320:	a0 17       	cp	r26, r16
    2322:	b1 07       	cpc	r27, r17
    2324:	09 f0       	breq	.+2      	; 0x2328 <_ZN10Motors32u44initEPPh14prescalerTimerb+0xf4>
    2326:	ad cf       	rjmp	.-166    	; 0x2282 <_ZN10Motors32u44initEPPh14prescalerTimerb+0x4e>
			Digital::setOutput(IO_PC6,LOW);
			TCCR3A |= (1<<COM3A0) | (1<<COM3A1);
			timer3 = true;
		}
	}
	if(!timer0 && !timer1 && !timer3) return; //Si no se detecta los registros de memoria apropiados
    2328:	80 91 46 04 	lds	r24, 0x0446
    232c:	81 11       	cpse	r24, r1
    232e:	09 c0       	rjmp	.+18     	; 0x2342 <_ZN10Motors32u44initEPPh14prescalerTimerb+0x10e>
    2330:	80 91 45 04 	lds	r24, 0x0445
    2334:	81 11       	cpse	r24, r1
    2336:	13 c0       	rjmp	.+38     	; 0x235e <_ZN10Motors32u44initEPPh14prescalerTimerb+0x12a>
    2338:	80 91 44 04 	lds	r24, 0x0444
    233c:	81 11       	cpse	r24, r1
    233e:	20 c0       	rjmp	.+64     	; 0x2380 <_ZN10Motors32u44initEPPh14prescalerTimerb+0x14c>
    2340:	59 c0       	rjmp	.+178    	; 0x23f4 <_ZN10Motors32u44initEPPh14prescalerTimerb+0x1c0>
	if(timer0){
		if(modePWM) TCCR0A |= 0x03; //Configura el timer en modo PWM rapido
    2342:	22 23       	and	r18, r18
    2344:	21 f0       	breq	.+8      	; 0x234e <_ZN10Motors32u44initEPPh14prescalerTimerb+0x11a>
    2346:	84 b5       	in	r24, 0x24	; 36
    2348:	83 60       	ori	r24, 0x03	; 3
    234a:	84 bd       	out	0x24, r24	; 36
    234c:	03 c0       	rjmp	.+6      	; 0x2354 <_ZN10Motors32u44initEPPh14prescalerTimerb+0x120>
		else TCCR0A |= 0x01; //Configura el timer en modo fase correcta
    234e:	84 b5       	in	r24, 0x24	; 36
    2350:	81 60       	ori	r24, 0x01	; 1
    2352:	84 bd       	out	0x24, r24	; 36
		TCCR0B = prescaler; //Asigna el prescaler
    2354:	45 bd       	out	0x25, r20	; 37
	}
	if(timer1){
    2356:	80 91 45 04 	lds	r24, 0x0445
    235a:	88 23       	and	r24, r24
    235c:	89 f0       	breq	.+34     	; 0x2380 <_ZN10Motors32u44initEPPh14prescalerTimerb+0x14c>
		TCCR1A |= (1<<WGM10);
    235e:	e0 e8       	ldi	r30, 0x80	; 128
    2360:	f0 e0       	ldi	r31, 0x00	; 0
    2362:	80 81       	ld	r24, Z
    2364:	81 60       	ori	r24, 0x01	; 1
    2366:	80 83       	st	Z, r24
		if(modePWM){TCCR1B |= (1<<WGM12);}
    2368:	22 23       	and	r18, r18
    236a:	29 f0       	breq	.+10     	; 0x2376 <_ZN10Motors32u44initEPPh14prescalerTimerb+0x142>
    236c:	e1 e8       	ldi	r30, 0x81	; 129
    236e:	f0 e0       	ldi	r31, 0x00	; 0
    2370:	80 81       	ld	r24, Z
    2372:	88 60       	ori	r24, 0x08	; 8
    2374:	80 83       	st	Z, r24
		
		TCCR1B |= prescaler;
    2376:	e1 e8       	ldi	r30, 0x81	; 129
    2378:	f0 e0       	ldi	r31, 0x00	; 0
    237a:	80 81       	ld	r24, Z
    237c:	84 2b       	or	r24, r20
    237e:	80 83       	st	Z, r24
	}
	if(timer3){
    2380:	80 91 44 04 	lds	r24, 0x0444
    2384:	88 23       	and	r24, r24
    2386:	89 f0       	breq	.+34     	; 0x23aa <_ZN10Motors32u44initEPPh14prescalerTimerb+0x176>
		TCCR3A |= (1<<WGM30);
    2388:	e0 e9       	ldi	r30, 0x90	; 144
    238a:	f0 e0       	ldi	r31, 0x00	; 0
    238c:	80 81       	ld	r24, Z
    238e:	81 60       	ori	r24, 0x01	; 1
    2390:	80 83       	st	Z, r24
		if(modePWM) TCCR3B |= (1<<WGM32);
    2392:	22 23       	and	r18, r18
    2394:	29 f0       	breq	.+10     	; 0x23a0 <_ZN10Motors32u44initEPPh14prescalerTimerb+0x16c>
    2396:	e1 e9       	ldi	r30, 0x91	; 145
    2398:	f0 e0       	ldi	r31, 0x00	; 0
    239a:	80 81       	ld	r24, Z
    239c:	88 60       	ori	r24, 0x08	; 8
    239e:	80 83       	st	Z, r24
		TCCR3B |= prescaler;
    23a0:	e1 e9       	ldi	r30, 0x91	; 145
    23a2:	f0 e0       	ldi	r31, 0x00	; 0
    23a4:	80 81       	ld	r24, Z
    23a6:	84 2b       	or	r24, r20
    23a8:	80 83       	st	Z, r24
	}
	pinMotorLeftA = pins[0];
    23aa:	db 01       	movw	r26, r22
    23ac:	ed 91       	ld	r30, X+
    23ae:	fc 91       	ld	r31, X
    23b0:	11 97       	sbiw	r26, 0x01	; 1
    23b2:	e5 01       	movw	r28, r10
    23b4:	f9 83       	std	Y+1, r31	; 0x01
    23b6:	e8 83       	st	Y, r30
	pinMotorLeftB = pins[1];
    23b8:	12 96       	adiw	r26, 0x02	; 2
    23ba:	0d 90       	ld	r0, X+
    23bc:	bc 91       	ld	r27, X
    23be:	a0 2d       	mov	r26, r0
    23c0:	bb 83       	std	Y+3, r27	; 0x03
    23c2:	aa 83       	std	Y+2, r26	; 0x02
	pinMotorRightA = pins[2];
    23c4:	eb 01       	movw	r28, r22
    23c6:	8c 81       	ldd	r24, Y+4	; 0x04
    23c8:	9d 81       	ldd	r25, Y+5	; 0x05
    23ca:	e5 01       	movw	r28, r10
    23cc:	9d 83       	std	Y+5, r25	; 0x05
    23ce:	8c 83       	std	Y+4, r24	; 0x04
	pinMotorRightB = pins[3];
    23d0:	eb 01       	movw	r28, r22
    23d2:	6e 81       	ldd	r22, Y+6	; 0x06
    23d4:	7f 81       	ldd	r23, Y+7	; 0x07
    23d6:	e5 01       	movw	r28, r10
    23d8:	7f 83       	std	Y+7, r23	; 0x07
    23da:	6e 83       	std	Y+6, r22	; 0x06
	*pinMotorLeftA = *pinMotorLeftB = *pinMotorRightA = *pinMotorRightB = 0; //Inicializa los motores
    23dc:	eb 01       	movw	r28, r22
    23de:	18 82       	st	Y, r1
    23e0:	ec 01       	movw	r28, r24
    23e2:	18 82       	st	Y, r1
    23e4:	1c 92       	st	X, r1
    23e6:	10 82       	st	Z, r1
	_modePWM = modePWM;
    23e8:	f5 01       	movw	r30, r10
    23ea:	21 87       	std	Z+9, r18	; 0x09
	_prescaler = prescaler;
    23ec:	40 87       	std	Z+8, r20	; 0x08
	initialize = true;
    23ee:	81 e0       	ldi	r24, 0x01	; 1
    23f0:	82 87       	std	Z+10, r24	; 0x0a
	sei();
    23f2:	78 94       	sei
	}
    23f4:	df 91       	pop	r29
    23f6:	cf 91       	pop	r28
    23f8:	1f 91       	pop	r17
    23fa:	0f 91       	pop	r16
    23fc:	ff 90       	pop	r15
    23fe:	ef 90       	pop	r14
    2400:	df 90       	pop	r13
    2402:	cf 90       	pop	r12
    2404:	bf 90       	pop	r11
    2406:	af 90       	pop	r10
    2408:	08 95       	ret

0000240a <_ZN10Motors32u49speedLeftEi>:
void Motors32u4::speedLeft(int speed)
{
    bool reverse=false;

	if(speed < 0){
    240a:	77 23       	and	r23, r23
    240c:	9c f4       	brge	.+38     	; 0x2434 <_ZN10Motors32u49speedLeftEi+0x2a>
	if(speed > 0xFF) speed = 0xFF;
	if(!reverse){
		*pinMotorLeftA = 0;
		*pinMotorLeftB = speed;
	}else{
		*pinMotorLeftB = 0;
    240e:	dc 01       	movw	r26, r24
    2410:	12 96       	adiw	r26, 0x02	; 2
    2412:	ed 91       	ld	r30, X+
    2414:	fc 91       	ld	r31, X
    2416:	13 97       	sbiw	r26, 0x03	; 3
    2418:	10 82       	st	Z, r1
	    *pinMotorLeftA = speed;
    241a:	ed 91       	ld	r30, X+
    241c:	fc 91       	ld	r31, X
    241e:	71 95       	neg	r23
    2420:	61 95       	neg	r22
    2422:	71 09       	sbc	r23, r1
    2424:	6f 3f       	cpi	r22, 0xFF	; 255
    2426:	71 05       	cpc	r23, r1
    2428:	19 f0       	breq	.+6      	; 0x2430 <_ZN10Motors32u49speedLeftEi+0x26>
    242a:	14 f0       	brlt	.+4      	; 0x2430 <_ZN10Motors32u49speedLeftEi+0x26>
    242c:	6f ef       	ldi	r22, 0xFF	; 255
    242e:	70 e0       	ldi	r23, 0x00	; 0
    2430:	60 83       	st	Z, r22
    2432:	08 95       	ret
	reverse = true;
	speed=-speed;	
	}
	if(speed > 0xFF) speed = 0xFF;
	if(!reverse){
		*pinMotorLeftA = 0;
    2434:	dc 01       	movw	r26, r24
    2436:	ed 91       	ld	r30, X+
    2438:	fc 91       	ld	r31, X
    243a:	11 97       	sbiw	r26, 0x01	; 1
    243c:	10 82       	st	Z, r1
		*pinMotorLeftB = speed;
    243e:	12 96       	adiw	r26, 0x02	; 2
    2440:	ed 91       	ld	r30, X+
    2442:	fc 91       	ld	r31, X
    2444:	13 97       	sbiw	r26, 0x03	; 3
    2446:	6f 3f       	cpi	r22, 0xFF	; 255
    2448:	71 05       	cpc	r23, r1
    244a:	19 f0       	breq	.+6      	; 0x2452 <_ZN10Motors32u49speedLeftEi+0x48>
    244c:	14 f0       	brlt	.+4      	; 0x2452 <_ZN10Motors32u49speedLeftEi+0x48>
    244e:	6f ef       	ldi	r22, 0xFF	; 255
    2450:	70 e0       	ldi	r23, 0x00	; 0
    2452:	60 83       	st	Z, r22
    2454:	08 95       	ret

00002456 <_ZN10Motors32u410speedRightEi>:
}
void Motors32u4::speedRight(int speed)
{
	bool reverse=false;
	
	if(speed < 0){
    2456:	77 23       	and	r23, r23
    2458:	ac f4       	brge	.+42     	; 0x2484 <_ZN10Motors32u410speedRightEi+0x2e>
	if(speed > 0xFF) speed = 0xFF;
	if(!reverse){
		*pinMotorRightA = 0;
		*pinMotorRightB = speed;
		}else{
		*pinMotorRightB = 0;
    245a:	dc 01       	movw	r26, r24
    245c:	16 96       	adiw	r26, 0x06	; 6
    245e:	ed 91       	ld	r30, X+
    2460:	fc 91       	ld	r31, X
    2462:	17 97       	sbiw	r26, 0x07	; 7
    2464:	10 82       	st	Z, r1
		*pinMotorRightA = speed;
    2466:	14 96       	adiw	r26, 0x04	; 4
    2468:	ed 91       	ld	r30, X+
    246a:	fc 91       	ld	r31, X
    246c:	15 97       	sbiw	r26, 0x05	; 5
    246e:	71 95       	neg	r23
    2470:	61 95       	neg	r22
    2472:	71 09       	sbc	r23, r1
    2474:	6f 3f       	cpi	r22, 0xFF	; 255
    2476:	71 05       	cpc	r23, r1
    2478:	19 f0       	breq	.+6      	; 0x2480 <_ZN10Motors32u410speedRightEi+0x2a>
    247a:	14 f0       	brlt	.+4      	; 0x2480 <_ZN10Motors32u410speedRightEi+0x2a>
    247c:	6f ef       	ldi	r22, 0xFF	; 255
    247e:	70 e0       	ldi	r23, 0x00	; 0
    2480:	60 83       	st	Z, r22
    2482:	08 95       	ret
		reverse = true;
		speed=-speed;
	}	
	if(speed > 0xFF) speed = 0xFF;
	if(!reverse){
		*pinMotorRightA = 0;
    2484:	dc 01       	movw	r26, r24
    2486:	14 96       	adiw	r26, 0x04	; 4
    2488:	ed 91       	ld	r30, X+
    248a:	fc 91       	ld	r31, X
    248c:	15 97       	sbiw	r26, 0x05	; 5
    248e:	10 82       	st	Z, r1
		*pinMotorRightB = speed;
    2490:	16 96       	adiw	r26, 0x06	; 6
    2492:	ed 91       	ld	r30, X+
    2494:	fc 91       	ld	r31, X
    2496:	17 97       	sbiw	r26, 0x07	; 7
    2498:	6f 3f       	cpi	r22, 0xFF	; 255
    249a:	71 05       	cpc	r23, r1
    249c:	19 f0       	breq	.+6      	; 0x24a4 <_ZN10Motors32u410speedRightEi+0x4e>
    249e:	14 f0       	brlt	.+4      	; 0x24a4 <_ZN10Motors32u410speedRightEi+0x4e>
    24a0:	6f ef       	ldi	r22, 0xFF	; 255
    24a2:	70 e0       	ldi	r23, 0x00	; 0
    24a4:	60 83       	st	Z, r22
    24a6:	08 95       	ret

000024a8 <_ZN10Motors32u49setSpeedsEii>:
		*pinMotorRightA = speed;
	}
}

void Motors32u4::setSpeeds(int left,int right)
{
    24a8:	0f 93       	push	r16
    24aa:	1f 93       	push	r17
    24ac:	cf 93       	push	r28
    24ae:	df 93       	push	r29
    24b0:	ec 01       	movw	r28, r24
    24b2:	8a 01       	movw	r16, r20
speedLeft(left);
    24b4:	0e 94 05 12 	call	0x240a	; 0x240a <_ZN10Motors32u49speedLeftEi>
speedRight(right);
    24b8:	b8 01       	movw	r22, r16
    24ba:	ce 01       	movw	r24, r28
    24bc:	0e 94 2b 12 	call	0x2456	; 0x2456 <_ZN10Motors32u410speedRightEi>
}
    24c0:	df 91       	pop	r29
    24c2:	cf 91       	pop	r28
    24c4:	1f 91       	pop	r17
    24c6:	0f 91       	pop	r16
    24c8:	08 95       	ret

000024ca <_ZN10Motors32u414stopBrakeRightEv>:
//Frenado tipo brake en el motor derecho ( deja que la llanta siga girando hasta que frene)
void Motors32u4::stopBrakeRight()
{
    24ca:	cf 93       	push	r28
    24cc:	df 93       	push	r29
	*pinMotorRightA = *pinMotorRightB = 0XFF;
    24ce:	dc 01       	movw	r26, r24
    24d0:	14 96       	adiw	r26, 0x04	; 4
    24d2:	ed 91       	ld	r30, X+
    24d4:	fc 91       	ld	r31, X
    24d6:	15 97       	sbiw	r26, 0x05	; 5
    24d8:	16 96       	adiw	r26, 0x06	; 6
    24da:	0d 90       	ld	r0, X+
    24dc:	bc 91       	ld	r27, X
    24de:	a0 2d       	mov	r26, r0
    24e0:	8f ef       	ldi	r24, 0xFF	; 255
    24e2:	8c 93       	st	X, r24
    24e4:	80 83       	st	Z, r24
}
    24e6:	df 91       	pop	r29
    24e8:	cf 91       	pop	r28
    24ea:	08 95       	ret

000024ec <_ZN10Motors32u413stopBrakeLeftEv>:
//Frenado tipo brake en el motor izquierdo ( deja que la llanta siga girando hasta que frene)
void Motors32u4::stopBrakeLeft()
{
    24ec:	cf 93       	push	r28
    24ee:	df 93       	push	r29
	*pinMotorLeftA = *pinMotorLeftB = 0xFF;
    24f0:	dc 01       	movw	r26, r24
    24f2:	ed 91       	ld	r30, X+
    24f4:	fc 91       	ld	r31, X
    24f6:	11 97       	sbiw	r26, 0x01	; 1
    24f8:	12 96       	adiw	r26, 0x02	; 2
    24fa:	0d 90       	ld	r0, X+
    24fc:	bc 91       	ld	r27, X
    24fe:	a0 2d       	mov	r26, r0
    2500:	8f ef       	ldi	r24, 0xFF	; 255
    2502:	8c 93       	st	X, r24
    2504:	80 83       	st	Z, r24
}
    2506:	df 91       	pop	r29
    2508:	cf 91       	pop	r28
    250a:	08 95       	ret

0000250c <_ZN10Motors32u49stopRightEv>:
//Frena toltamente el motor derecho
void Motors32u4::stopRight()
{
    250c:	cf 93       	push	r28
    250e:	df 93       	push	r29
	*pinMotorRightA = *pinMotorRightB = 0;
    2510:	dc 01       	movw	r26, r24
    2512:	14 96       	adiw	r26, 0x04	; 4
    2514:	ed 91       	ld	r30, X+
    2516:	fc 91       	ld	r31, X
    2518:	15 97       	sbiw	r26, 0x05	; 5
    251a:	16 96       	adiw	r26, 0x06	; 6
    251c:	0d 90       	ld	r0, X+
    251e:	bc 91       	ld	r27, X
    2520:	a0 2d       	mov	r26, r0
    2522:	1c 92       	st	X, r1
    2524:	10 82       	st	Z, r1
}
    2526:	df 91       	pop	r29
    2528:	cf 91       	pop	r28
    252a:	08 95       	ret

0000252c <_ZN10Motors32u48stopLeftEv>:
//Frena totalmente el motor izquierdo
void Motors32u4::stopLeft()
{
    252c:	cf 93       	push	r28
    252e:	df 93       	push	r29
	*pinMotorLeftA = *pinMotorLeftB = 0;
    2530:	dc 01       	movw	r26, r24
    2532:	ed 91       	ld	r30, X+
    2534:	fc 91       	ld	r31, X
    2536:	11 97       	sbiw	r26, 0x01	; 1
    2538:	12 96       	adiw	r26, 0x02	; 2
    253a:	0d 90       	ld	r0, X+
    253c:	bc 91       	ld	r27, X
    253e:	a0 2d       	mov	r26, r0
    2540:	1c 92       	st	X, r1
    2542:	10 82       	st	Z, r1
}
    2544:	df 91       	pop	r29
    2546:	cf 91       	pop	r28
    2548:	08 95       	ret

0000254a <_ZN10Motors32u415stopBrakeMotorsEv>:
//Deja girando libremente ambos motores
void Motors32u4::stopBrakeMotors(){
    254a:	cf 93       	push	r28
    254c:	df 93       	push	r29
    254e:	ec 01       	movw	r28, r24
	stopBrakeLeft();
    2550:	0e 94 76 12 	call	0x24ec	; 0x24ec <_ZN10Motors32u413stopBrakeLeftEv>
	stopBrakeRight();
    2554:	ce 01       	movw	r24, r28
    2556:	0e 94 65 12 	call	0x24ca	; 0x24ca <_ZN10Motors32u414stopBrakeRightEv>
}
    255a:	df 91       	pop	r29
    255c:	cf 91       	pop	r28
    255e:	08 95       	ret

00002560 <_ZN10Motors32u412getFrequencyEv>:

unsigned char Motors32u4::getFrequency()
{
unsigned char typePWM;
	if(_modePWM) typePWM=1;
    2560:	fc 01       	movw	r30, r24
    2562:	21 85       	ldd	r18, Z+9	; 0x09
    2564:	21 11       	cpse	r18, r1
    2566:	02 c0       	rjmp	.+4      	; 0x256c <_ZN10Motors32u412getFrequencyEv+0xc>
	else typePWM=2;
    2568:	42 e0       	ldi	r20, 0x02	; 2
    256a:	01 c0       	rjmp	.+2      	; 0x256e <_ZN10Motors32u412getFrequencyEv+0xe>
}

unsigned char Motors32u4::getFrequency()
{
unsigned char typePWM;
	if(_modePWM) typePWM=1;
    256c:	41 e0       	ldi	r20, 0x01	; 1
	else typePWM=2;
		
return ((F_CPU / (_prescaler*256*typePWM))/1000);
    256e:	fc 01       	movw	r30, r24
    2570:	80 85       	ldd	r24, Z+8	; 0x08
    2572:	90 e0       	ldi	r25, 0x00	; 0
    2574:	98 2f       	mov	r25, r24
    2576:	88 27       	eor	r24, r24
    2578:	48 9f       	mul	r20, r24
    257a:	90 01       	movw	r18, r0
    257c:	49 9f       	mul	r20, r25
    257e:	30 0d       	add	r19, r0
    2580:	11 24       	eor	r1, r1
    2582:	03 2e       	mov	r0, r19
    2584:	00 0c       	add	r0, r0
    2586:	44 0b       	sbc	r20, r20
    2588:	55 0b       	sbc	r21, r21
    258a:	60 ee       	ldi	r22, 0xE0	; 224
    258c:	7e e2       	ldi	r23, 0x2E	; 46
    258e:	80 e0       	ldi	r24, 0x00	; 0
    2590:	90 e0       	ldi	r25, 0x00	; 0
    2592:	0e 94 df 18 	call	0x31be	; 0x31be <__udivmodsi4>
    2596:	82 2f       	mov	r24, r18
}
    2598:	08 95       	ret

0000259a <_ZN10Motors32u410stopMotorsEv>:

//Frena ambos motores
void Motors32u4::stopMotors(){
    259a:	cf 93       	push	r28
    259c:	df 93       	push	r29
    259e:	ec 01       	movw	r28, r24
	stopRight();
    25a0:	0e 94 86 12 	call	0x250c	; 0x250c <_ZN10Motors32u49stopRightEv>
	stopLeft();
    25a4:	ce 01       	movw	r24, r28
    25a6:	0e 94 96 12 	call	0x252c	; 0x252c <_ZN10Motors32u48stopLeftEv>
}
    25aa:	df 91       	pop	r29
    25ac:	cf 91       	pop	r28
    25ae:	08 95       	ret

000025b0 <_ZN10Motors32u4D1Ev>:

// default destructor
Motors32u4::~Motors32u4()
    25b0:	08 95       	ret

000025b2 <__subsf3>:
    25b2:	50 58       	subi	r21, 0x80	; 128

000025b4 <__addsf3>:
    25b4:	bb 27       	eor	r27, r27
    25b6:	aa 27       	eor	r26, r26
    25b8:	0e 94 f1 12 	call	0x25e2	; 0x25e2 <__addsf3x>
    25bc:	0c 94 6b 14 	jmp	0x28d6	; 0x28d6 <__fp_round>
    25c0:	0e 94 5d 14 	call	0x28ba	; 0x28ba <__fp_pscA>
    25c4:	38 f0       	brcs	.+14     	; 0x25d4 <__addsf3+0x20>
    25c6:	0e 94 64 14 	call	0x28c8	; 0x28c8 <__fp_pscB>
    25ca:	20 f0       	brcs	.+8      	; 0x25d4 <__addsf3+0x20>
    25cc:	39 f4       	brne	.+14     	; 0x25dc <__addsf3+0x28>
    25ce:	9f 3f       	cpi	r25, 0xFF	; 255
    25d0:	19 f4       	brne	.+6      	; 0x25d8 <__addsf3+0x24>
    25d2:	26 f4       	brtc	.+8      	; 0x25dc <__addsf3+0x28>
    25d4:	0c 94 5a 14 	jmp	0x28b4	; 0x28b4 <__fp_nan>
    25d8:	0e f4       	brtc	.+2      	; 0x25dc <__addsf3+0x28>
    25da:	e0 95       	com	r30
    25dc:	e7 fb       	bst	r30, 7
    25de:	0c 94 54 14 	jmp	0x28a8	; 0x28a8 <__fp_inf>

000025e2 <__addsf3x>:
    25e2:	e9 2f       	mov	r30, r25
    25e4:	0e 94 7c 14 	call	0x28f8	; 0x28f8 <__fp_split3>
    25e8:	58 f3       	brcs	.-42     	; 0x25c0 <__addsf3+0xc>
    25ea:	ba 17       	cp	r27, r26
    25ec:	62 07       	cpc	r22, r18
    25ee:	73 07       	cpc	r23, r19
    25f0:	84 07       	cpc	r24, r20
    25f2:	95 07       	cpc	r25, r21
    25f4:	20 f0       	brcs	.+8      	; 0x25fe <__addsf3x+0x1c>
    25f6:	79 f4       	brne	.+30     	; 0x2616 <__addsf3x+0x34>
    25f8:	a6 f5       	brtc	.+104    	; 0x2662 <__addsf3x+0x80>
    25fa:	0c 94 9e 14 	jmp	0x293c	; 0x293c <__fp_zero>
    25fe:	0e f4       	brtc	.+2      	; 0x2602 <__addsf3x+0x20>
    2600:	e0 95       	com	r30
    2602:	0b 2e       	mov	r0, r27
    2604:	ba 2f       	mov	r27, r26
    2606:	a0 2d       	mov	r26, r0
    2608:	0b 01       	movw	r0, r22
    260a:	b9 01       	movw	r22, r18
    260c:	90 01       	movw	r18, r0
    260e:	0c 01       	movw	r0, r24
    2610:	ca 01       	movw	r24, r20
    2612:	a0 01       	movw	r20, r0
    2614:	11 24       	eor	r1, r1
    2616:	ff 27       	eor	r31, r31
    2618:	59 1b       	sub	r21, r25
    261a:	99 f0       	breq	.+38     	; 0x2642 <__addsf3x+0x60>
    261c:	59 3f       	cpi	r21, 0xF9	; 249
    261e:	50 f4       	brcc	.+20     	; 0x2634 <__addsf3x+0x52>
    2620:	50 3e       	cpi	r21, 0xE0	; 224
    2622:	68 f1       	brcs	.+90     	; 0x267e <__addsf3x+0x9c>
    2624:	1a 16       	cp	r1, r26
    2626:	f0 40       	sbci	r31, 0x00	; 0
    2628:	a2 2f       	mov	r26, r18
    262a:	23 2f       	mov	r18, r19
    262c:	34 2f       	mov	r19, r20
    262e:	44 27       	eor	r20, r20
    2630:	58 5f       	subi	r21, 0xF8	; 248
    2632:	f3 cf       	rjmp	.-26     	; 0x261a <__addsf3x+0x38>
    2634:	46 95       	lsr	r20
    2636:	37 95       	ror	r19
    2638:	27 95       	ror	r18
    263a:	a7 95       	ror	r26
    263c:	f0 40       	sbci	r31, 0x00	; 0
    263e:	53 95       	inc	r21
    2640:	c9 f7       	brne	.-14     	; 0x2634 <__addsf3x+0x52>
    2642:	7e f4       	brtc	.+30     	; 0x2662 <__addsf3x+0x80>
    2644:	1f 16       	cp	r1, r31
    2646:	ba 0b       	sbc	r27, r26
    2648:	62 0b       	sbc	r22, r18
    264a:	73 0b       	sbc	r23, r19
    264c:	84 0b       	sbc	r24, r20
    264e:	ba f0       	brmi	.+46     	; 0x267e <__addsf3x+0x9c>
    2650:	91 50       	subi	r25, 0x01	; 1
    2652:	a1 f0       	breq	.+40     	; 0x267c <__addsf3x+0x9a>
    2654:	ff 0f       	add	r31, r31
    2656:	bb 1f       	adc	r27, r27
    2658:	66 1f       	adc	r22, r22
    265a:	77 1f       	adc	r23, r23
    265c:	88 1f       	adc	r24, r24
    265e:	c2 f7       	brpl	.-16     	; 0x2650 <__addsf3x+0x6e>
    2660:	0e c0       	rjmp	.+28     	; 0x267e <__addsf3x+0x9c>
    2662:	ba 0f       	add	r27, r26
    2664:	62 1f       	adc	r22, r18
    2666:	73 1f       	adc	r23, r19
    2668:	84 1f       	adc	r24, r20
    266a:	48 f4       	brcc	.+18     	; 0x267e <__addsf3x+0x9c>
    266c:	87 95       	ror	r24
    266e:	77 95       	ror	r23
    2670:	67 95       	ror	r22
    2672:	b7 95       	ror	r27
    2674:	f7 95       	ror	r31
    2676:	9e 3f       	cpi	r25, 0xFE	; 254
    2678:	08 f0       	brcs	.+2      	; 0x267c <__addsf3x+0x9a>
    267a:	b0 cf       	rjmp	.-160    	; 0x25dc <__addsf3+0x28>
    267c:	93 95       	inc	r25
    267e:	88 0f       	add	r24, r24
    2680:	08 f0       	brcs	.+2      	; 0x2684 <__addsf3x+0xa2>
    2682:	99 27       	eor	r25, r25
    2684:	ee 0f       	add	r30, r30
    2686:	97 95       	ror	r25
    2688:	87 95       	ror	r24
    268a:	08 95       	ret

0000268c <__cmpsf2>:
    268c:	0e 94 30 14 	call	0x2860	; 0x2860 <__fp_cmp>
    2690:	08 f4       	brcc	.+2      	; 0x2694 <__cmpsf2+0x8>
    2692:	81 e0       	ldi	r24, 0x01	; 1
    2694:	08 95       	ret

00002696 <__divsf3>:
    2696:	0e 94 5f 13 	call	0x26be	; 0x26be <__divsf3x>
    269a:	0c 94 6b 14 	jmp	0x28d6	; 0x28d6 <__fp_round>
    269e:	0e 94 64 14 	call	0x28c8	; 0x28c8 <__fp_pscB>
    26a2:	58 f0       	brcs	.+22     	; 0x26ba <__divsf3+0x24>
    26a4:	0e 94 5d 14 	call	0x28ba	; 0x28ba <__fp_pscA>
    26a8:	40 f0       	brcs	.+16     	; 0x26ba <__divsf3+0x24>
    26aa:	29 f4       	brne	.+10     	; 0x26b6 <__divsf3+0x20>
    26ac:	5f 3f       	cpi	r21, 0xFF	; 255
    26ae:	29 f0       	breq	.+10     	; 0x26ba <__divsf3+0x24>
    26b0:	0c 94 54 14 	jmp	0x28a8	; 0x28a8 <__fp_inf>
    26b4:	51 11       	cpse	r21, r1
    26b6:	0c 94 9f 14 	jmp	0x293e	; 0x293e <__fp_szero>
    26ba:	0c 94 5a 14 	jmp	0x28b4	; 0x28b4 <__fp_nan>

000026be <__divsf3x>:
    26be:	0e 94 7c 14 	call	0x28f8	; 0x28f8 <__fp_split3>
    26c2:	68 f3       	brcs	.-38     	; 0x269e <__divsf3+0x8>

000026c4 <__divsf3_pse>:
    26c4:	99 23       	and	r25, r25
    26c6:	b1 f3       	breq	.-20     	; 0x26b4 <__divsf3+0x1e>
    26c8:	55 23       	and	r21, r21
    26ca:	91 f3       	breq	.-28     	; 0x26b0 <__divsf3+0x1a>
    26cc:	95 1b       	sub	r25, r21
    26ce:	55 0b       	sbc	r21, r21
    26d0:	bb 27       	eor	r27, r27
    26d2:	aa 27       	eor	r26, r26
    26d4:	62 17       	cp	r22, r18
    26d6:	73 07       	cpc	r23, r19
    26d8:	84 07       	cpc	r24, r20
    26da:	38 f0       	brcs	.+14     	; 0x26ea <__divsf3_pse+0x26>
    26dc:	9f 5f       	subi	r25, 0xFF	; 255
    26de:	5f 4f       	sbci	r21, 0xFF	; 255
    26e0:	22 0f       	add	r18, r18
    26e2:	33 1f       	adc	r19, r19
    26e4:	44 1f       	adc	r20, r20
    26e6:	aa 1f       	adc	r26, r26
    26e8:	a9 f3       	breq	.-22     	; 0x26d4 <__divsf3_pse+0x10>
    26ea:	35 d0       	rcall	.+106    	; 0x2756 <__divsf3_pse+0x92>
    26ec:	0e 2e       	mov	r0, r30
    26ee:	3a f0       	brmi	.+14     	; 0x26fe <__divsf3_pse+0x3a>
    26f0:	e0 e8       	ldi	r30, 0x80	; 128
    26f2:	32 d0       	rcall	.+100    	; 0x2758 <__divsf3_pse+0x94>
    26f4:	91 50       	subi	r25, 0x01	; 1
    26f6:	50 40       	sbci	r21, 0x00	; 0
    26f8:	e6 95       	lsr	r30
    26fa:	00 1c       	adc	r0, r0
    26fc:	ca f7       	brpl	.-14     	; 0x26f0 <__divsf3_pse+0x2c>
    26fe:	2b d0       	rcall	.+86     	; 0x2756 <__divsf3_pse+0x92>
    2700:	fe 2f       	mov	r31, r30
    2702:	29 d0       	rcall	.+82     	; 0x2756 <__divsf3_pse+0x92>
    2704:	66 0f       	add	r22, r22
    2706:	77 1f       	adc	r23, r23
    2708:	88 1f       	adc	r24, r24
    270a:	bb 1f       	adc	r27, r27
    270c:	26 17       	cp	r18, r22
    270e:	37 07       	cpc	r19, r23
    2710:	48 07       	cpc	r20, r24
    2712:	ab 07       	cpc	r26, r27
    2714:	b0 e8       	ldi	r27, 0x80	; 128
    2716:	09 f0       	breq	.+2      	; 0x271a <__divsf3_pse+0x56>
    2718:	bb 0b       	sbc	r27, r27
    271a:	80 2d       	mov	r24, r0
    271c:	bf 01       	movw	r22, r30
    271e:	ff 27       	eor	r31, r31
    2720:	93 58       	subi	r25, 0x83	; 131
    2722:	5f 4f       	sbci	r21, 0xFF	; 255
    2724:	3a f0       	brmi	.+14     	; 0x2734 <__divsf3_pse+0x70>
    2726:	9e 3f       	cpi	r25, 0xFE	; 254
    2728:	51 05       	cpc	r21, r1
    272a:	78 f0       	brcs	.+30     	; 0x274a <__divsf3_pse+0x86>
    272c:	0c 94 54 14 	jmp	0x28a8	; 0x28a8 <__fp_inf>
    2730:	0c 94 9f 14 	jmp	0x293e	; 0x293e <__fp_szero>
    2734:	5f 3f       	cpi	r21, 0xFF	; 255
    2736:	e4 f3       	brlt	.-8      	; 0x2730 <__divsf3_pse+0x6c>
    2738:	98 3e       	cpi	r25, 0xE8	; 232
    273a:	d4 f3       	brlt	.-12     	; 0x2730 <__divsf3_pse+0x6c>
    273c:	86 95       	lsr	r24
    273e:	77 95       	ror	r23
    2740:	67 95       	ror	r22
    2742:	b7 95       	ror	r27
    2744:	f7 95       	ror	r31
    2746:	9f 5f       	subi	r25, 0xFF	; 255
    2748:	c9 f7       	brne	.-14     	; 0x273c <__divsf3_pse+0x78>
    274a:	88 0f       	add	r24, r24
    274c:	91 1d       	adc	r25, r1
    274e:	96 95       	lsr	r25
    2750:	87 95       	ror	r24
    2752:	97 f9       	bld	r25, 7
    2754:	08 95       	ret
    2756:	e1 e0       	ldi	r30, 0x01	; 1
    2758:	66 0f       	add	r22, r22
    275a:	77 1f       	adc	r23, r23
    275c:	88 1f       	adc	r24, r24
    275e:	bb 1f       	adc	r27, r27
    2760:	62 17       	cp	r22, r18
    2762:	73 07       	cpc	r23, r19
    2764:	84 07       	cpc	r24, r20
    2766:	ba 07       	cpc	r27, r26
    2768:	20 f0       	brcs	.+8      	; 0x2772 <__divsf3_pse+0xae>
    276a:	62 1b       	sub	r22, r18
    276c:	73 0b       	sbc	r23, r19
    276e:	84 0b       	sbc	r24, r20
    2770:	ba 0b       	sbc	r27, r26
    2772:	ee 1f       	adc	r30, r30
    2774:	88 f7       	brcc	.-30     	; 0x2758 <__divsf3_pse+0x94>
    2776:	e0 95       	com	r30
    2778:	08 95       	ret

0000277a <__fixsfsi>:
    277a:	0e 94 c4 13 	call	0x2788	; 0x2788 <__fixunssfsi>
    277e:	68 94       	set
    2780:	b1 11       	cpse	r27, r1
    2782:	0c 94 9f 14 	jmp	0x293e	; 0x293e <__fp_szero>
    2786:	08 95       	ret

00002788 <__fixunssfsi>:
    2788:	0e 94 84 14 	call	0x2908	; 0x2908 <__fp_splitA>
    278c:	88 f0       	brcs	.+34     	; 0x27b0 <__fixunssfsi+0x28>
    278e:	9f 57       	subi	r25, 0x7F	; 127
    2790:	98 f0       	brcs	.+38     	; 0x27b8 <__fixunssfsi+0x30>
    2792:	b9 2f       	mov	r27, r25
    2794:	99 27       	eor	r25, r25
    2796:	b7 51       	subi	r27, 0x17	; 23
    2798:	b0 f0       	brcs	.+44     	; 0x27c6 <__fixunssfsi+0x3e>
    279a:	e1 f0       	breq	.+56     	; 0x27d4 <__fixunssfsi+0x4c>
    279c:	66 0f       	add	r22, r22
    279e:	77 1f       	adc	r23, r23
    27a0:	88 1f       	adc	r24, r24
    27a2:	99 1f       	adc	r25, r25
    27a4:	1a f0       	brmi	.+6      	; 0x27ac <__fixunssfsi+0x24>
    27a6:	ba 95       	dec	r27
    27a8:	c9 f7       	brne	.-14     	; 0x279c <__fixunssfsi+0x14>
    27aa:	14 c0       	rjmp	.+40     	; 0x27d4 <__fixunssfsi+0x4c>
    27ac:	b1 30       	cpi	r27, 0x01	; 1
    27ae:	91 f0       	breq	.+36     	; 0x27d4 <__fixunssfsi+0x4c>
    27b0:	0e 94 9e 14 	call	0x293c	; 0x293c <__fp_zero>
    27b4:	b1 e0       	ldi	r27, 0x01	; 1
    27b6:	08 95       	ret
    27b8:	0c 94 9e 14 	jmp	0x293c	; 0x293c <__fp_zero>
    27bc:	67 2f       	mov	r22, r23
    27be:	78 2f       	mov	r23, r24
    27c0:	88 27       	eor	r24, r24
    27c2:	b8 5f       	subi	r27, 0xF8	; 248
    27c4:	39 f0       	breq	.+14     	; 0x27d4 <__fixunssfsi+0x4c>
    27c6:	b9 3f       	cpi	r27, 0xF9	; 249
    27c8:	cc f3       	brlt	.-14     	; 0x27bc <__fixunssfsi+0x34>
    27ca:	86 95       	lsr	r24
    27cc:	77 95       	ror	r23
    27ce:	67 95       	ror	r22
    27d0:	b3 95       	inc	r27
    27d2:	d9 f7       	brne	.-10     	; 0x27ca <__fixunssfsi+0x42>
    27d4:	3e f4       	brtc	.+14     	; 0x27e4 <__fixunssfsi+0x5c>
    27d6:	90 95       	com	r25
    27d8:	80 95       	com	r24
    27da:	70 95       	com	r23
    27dc:	61 95       	neg	r22
    27de:	7f 4f       	sbci	r23, 0xFF	; 255
    27e0:	8f 4f       	sbci	r24, 0xFF	; 255
    27e2:	9f 4f       	sbci	r25, 0xFF	; 255
    27e4:	08 95       	ret

000027e6 <__floatunsisf>:
    27e6:	e8 94       	clt
    27e8:	09 c0       	rjmp	.+18     	; 0x27fc <__floatsisf+0x12>

000027ea <__floatsisf>:
    27ea:	97 fb       	bst	r25, 7
    27ec:	3e f4       	brtc	.+14     	; 0x27fc <__floatsisf+0x12>
    27ee:	90 95       	com	r25
    27f0:	80 95       	com	r24
    27f2:	70 95       	com	r23
    27f4:	61 95       	neg	r22
    27f6:	7f 4f       	sbci	r23, 0xFF	; 255
    27f8:	8f 4f       	sbci	r24, 0xFF	; 255
    27fa:	9f 4f       	sbci	r25, 0xFF	; 255
    27fc:	99 23       	and	r25, r25
    27fe:	a9 f0       	breq	.+42     	; 0x282a <__floatsisf+0x40>
    2800:	f9 2f       	mov	r31, r25
    2802:	96 e9       	ldi	r25, 0x96	; 150
    2804:	bb 27       	eor	r27, r27
    2806:	93 95       	inc	r25
    2808:	f6 95       	lsr	r31
    280a:	87 95       	ror	r24
    280c:	77 95       	ror	r23
    280e:	67 95       	ror	r22
    2810:	b7 95       	ror	r27
    2812:	f1 11       	cpse	r31, r1
    2814:	f8 cf       	rjmp	.-16     	; 0x2806 <__floatsisf+0x1c>
    2816:	fa f4       	brpl	.+62     	; 0x2856 <__floatsisf+0x6c>
    2818:	bb 0f       	add	r27, r27
    281a:	11 f4       	brne	.+4      	; 0x2820 <__floatsisf+0x36>
    281c:	60 ff       	sbrs	r22, 0
    281e:	1b c0       	rjmp	.+54     	; 0x2856 <__floatsisf+0x6c>
    2820:	6f 5f       	subi	r22, 0xFF	; 255
    2822:	7f 4f       	sbci	r23, 0xFF	; 255
    2824:	8f 4f       	sbci	r24, 0xFF	; 255
    2826:	9f 4f       	sbci	r25, 0xFF	; 255
    2828:	16 c0       	rjmp	.+44     	; 0x2856 <__floatsisf+0x6c>
    282a:	88 23       	and	r24, r24
    282c:	11 f0       	breq	.+4      	; 0x2832 <__floatsisf+0x48>
    282e:	96 e9       	ldi	r25, 0x96	; 150
    2830:	11 c0       	rjmp	.+34     	; 0x2854 <__floatsisf+0x6a>
    2832:	77 23       	and	r23, r23
    2834:	21 f0       	breq	.+8      	; 0x283e <__floatsisf+0x54>
    2836:	9e e8       	ldi	r25, 0x8E	; 142
    2838:	87 2f       	mov	r24, r23
    283a:	76 2f       	mov	r23, r22
    283c:	05 c0       	rjmp	.+10     	; 0x2848 <__floatsisf+0x5e>
    283e:	66 23       	and	r22, r22
    2840:	71 f0       	breq	.+28     	; 0x285e <__floatsisf+0x74>
    2842:	96 e8       	ldi	r25, 0x86	; 134
    2844:	86 2f       	mov	r24, r22
    2846:	70 e0       	ldi	r23, 0x00	; 0
    2848:	60 e0       	ldi	r22, 0x00	; 0
    284a:	2a f0       	brmi	.+10     	; 0x2856 <__floatsisf+0x6c>
    284c:	9a 95       	dec	r25
    284e:	66 0f       	add	r22, r22
    2850:	77 1f       	adc	r23, r23
    2852:	88 1f       	adc	r24, r24
    2854:	da f7       	brpl	.-10     	; 0x284c <__floatsisf+0x62>
    2856:	88 0f       	add	r24, r24
    2858:	96 95       	lsr	r25
    285a:	87 95       	ror	r24
    285c:	97 f9       	bld	r25, 7
    285e:	08 95       	ret

00002860 <__fp_cmp>:
    2860:	99 0f       	add	r25, r25
    2862:	00 08       	sbc	r0, r0
    2864:	55 0f       	add	r21, r21
    2866:	aa 0b       	sbc	r26, r26
    2868:	e0 e8       	ldi	r30, 0x80	; 128
    286a:	fe ef       	ldi	r31, 0xFE	; 254
    286c:	16 16       	cp	r1, r22
    286e:	17 06       	cpc	r1, r23
    2870:	e8 07       	cpc	r30, r24
    2872:	f9 07       	cpc	r31, r25
    2874:	c0 f0       	brcs	.+48     	; 0x28a6 <__fp_cmp+0x46>
    2876:	12 16       	cp	r1, r18
    2878:	13 06       	cpc	r1, r19
    287a:	e4 07       	cpc	r30, r20
    287c:	f5 07       	cpc	r31, r21
    287e:	98 f0       	brcs	.+38     	; 0x28a6 <__fp_cmp+0x46>
    2880:	62 1b       	sub	r22, r18
    2882:	73 0b       	sbc	r23, r19
    2884:	84 0b       	sbc	r24, r20
    2886:	95 0b       	sbc	r25, r21
    2888:	39 f4       	brne	.+14     	; 0x2898 <__fp_cmp+0x38>
    288a:	0a 26       	eor	r0, r26
    288c:	61 f0       	breq	.+24     	; 0x28a6 <__fp_cmp+0x46>
    288e:	23 2b       	or	r18, r19
    2890:	24 2b       	or	r18, r20
    2892:	25 2b       	or	r18, r21
    2894:	21 f4       	brne	.+8      	; 0x289e <__fp_cmp+0x3e>
    2896:	08 95       	ret
    2898:	0a 26       	eor	r0, r26
    289a:	09 f4       	brne	.+2      	; 0x289e <__fp_cmp+0x3e>
    289c:	a1 40       	sbci	r26, 0x01	; 1
    289e:	a6 95       	lsr	r26
    28a0:	8f ef       	ldi	r24, 0xFF	; 255
    28a2:	81 1d       	adc	r24, r1
    28a4:	81 1d       	adc	r24, r1
    28a6:	08 95       	ret

000028a8 <__fp_inf>:
    28a8:	97 f9       	bld	r25, 7
    28aa:	9f 67       	ori	r25, 0x7F	; 127
    28ac:	80 e8       	ldi	r24, 0x80	; 128
    28ae:	70 e0       	ldi	r23, 0x00	; 0
    28b0:	60 e0       	ldi	r22, 0x00	; 0
    28b2:	08 95       	ret

000028b4 <__fp_nan>:
    28b4:	9f ef       	ldi	r25, 0xFF	; 255
    28b6:	80 ec       	ldi	r24, 0xC0	; 192
    28b8:	08 95       	ret

000028ba <__fp_pscA>:
    28ba:	00 24       	eor	r0, r0
    28bc:	0a 94       	dec	r0
    28be:	16 16       	cp	r1, r22
    28c0:	17 06       	cpc	r1, r23
    28c2:	18 06       	cpc	r1, r24
    28c4:	09 06       	cpc	r0, r25
    28c6:	08 95       	ret

000028c8 <__fp_pscB>:
    28c8:	00 24       	eor	r0, r0
    28ca:	0a 94       	dec	r0
    28cc:	12 16       	cp	r1, r18
    28ce:	13 06       	cpc	r1, r19
    28d0:	14 06       	cpc	r1, r20
    28d2:	05 06       	cpc	r0, r21
    28d4:	08 95       	ret

000028d6 <__fp_round>:
    28d6:	09 2e       	mov	r0, r25
    28d8:	03 94       	inc	r0
    28da:	00 0c       	add	r0, r0
    28dc:	11 f4       	brne	.+4      	; 0x28e2 <__fp_round+0xc>
    28de:	88 23       	and	r24, r24
    28e0:	52 f0       	brmi	.+20     	; 0x28f6 <__fp_round+0x20>
    28e2:	bb 0f       	add	r27, r27
    28e4:	40 f4       	brcc	.+16     	; 0x28f6 <__fp_round+0x20>
    28e6:	bf 2b       	or	r27, r31
    28e8:	11 f4       	brne	.+4      	; 0x28ee <__fp_round+0x18>
    28ea:	60 ff       	sbrs	r22, 0
    28ec:	04 c0       	rjmp	.+8      	; 0x28f6 <__fp_round+0x20>
    28ee:	6f 5f       	subi	r22, 0xFF	; 255
    28f0:	7f 4f       	sbci	r23, 0xFF	; 255
    28f2:	8f 4f       	sbci	r24, 0xFF	; 255
    28f4:	9f 4f       	sbci	r25, 0xFF	; 255
    28f6:	08 95       	ret

000028f8 <__fp_split3>:
    28f8:	57 fd       	sbrc	r21, 7
    28fa:	90 58       	subi	r25, 0x80	; 128
    28fc:	44 0f       	add	r20, r20
    28fe:	55 1f       	adc	r21, r21
    2900:	59 f0       	breq	.+22     	; 0x2918 <__fp_splitA+0x10>
    2902:	5f 3f       	cpi	r21, 0xFF	; 255
    2904:	71 f0       	breq	.+28     	; 0x2922 <__fp_splitA+0x1a>
    2906:	47 95       	ror	r20

00002908 <__fp_splitA>:
    2908:	88 0f       	add	r24, r24
    290a:	97 fb       	bst	r25, 7
    290c:	99 1f       	adc	r25, r25
    290e:	61 f0       	breq	.+24     	; 0x2928 <__fp_splitA+0x20>
    2910:	9f 3f       	cpi	r25, 0xFF	; 255
    2912:	79 f0       	breq	.+30     	; 0x2932 <__fp_splitA+0x2a>
    2914:	87 95       	ror	r24
    2916:	08 95       	ret
    2918:	12 16       	cp	r1, r18
    291a:	13 06       	cpc	r1, r19
    291c:	14 06       	cpc	r1, r20
    291e:	55 1f       	adc	r21, r21
    2920:	f2 cf       	rjmp	.-28     	; 0x2906 <__fp_split3+0xe>
    2922:	46 95       	lsr	r20
    2924:	f1 df       	rcall	.-30     	; 0x2908 <__fp_splitA>
    2926:	08 c0       	rjmp	.+16     	; 0x2938 <__fp_splitA+0x30>
    2928:	16 16       	cp	r1, r22
    292a:	17 06       	cpc	r1, r23
    292c:	18 06       	cpc	r1, r24
    292e:	99 1f       	adc	r25, r25
    2930:	f1 cf       	rjmp	.-30     	; 0x2914 <__fp_splitA+0xc>
    2932:	86 95       	lsr	r24
    2934:	71 05       	cpc	r23, r1
    2936:	61 05       	cpc	r22, r1
    2938:	08 94       	sec
    293a:	08 95       	ret

0000293c <__fp_zero>:
    293c:	e8 94       	clt

0000293e <__fp_szero>:
    293e:	bb 27       	eor	r27, r27
    2940:	66 27       	eor	r22, r22
    2942:	77 27       	eor	r23, r23
    2944:	cb 01       	movw	r24, r22
    2946:	97 f9       	bld	r25, 7
    2948:	08 95       	ret

0000294a <lrint>:
    294a:	0e 94 84 14 	call	0x2908	; 0x2908 <__fp_splitA>
    294e:	a8 f1       	brcs	.+106    	; 0x29ba <lrint+0x70>
    2950:	9e 57       	subi	r25, 0x7E	; 126
    2952:	b0 f1       	brcs	.+108    	; 0x29c0 <lrint+0x76>
    2954:	98 51       	subi	r25, 0x18	; 24
    2956:	60 f0       	brcs	.+24     	; 0x2970 <lrint+0x26>
    2958:	39 f1       	breq	.+78     	; 0x29a8 <lrint+0x5e>
    295a:	98 30       	cpi	r25, 0x08	; 8
    295c:	70 f5       	brcc	.+92     	; 0x29ba <lrint+0x70>
    295e:	09 2e       	mov	r0, r25
    2960:	99 27       	eor	r25, r25
    2962:	66 0f       	add	r22, r22
    2964:	77 1f       	adc	r23, r23
    2966:	88 1f       	adc	r24, r24
    2968:	99 1f       	adc	r25, r25
    296a:	0a 94       	dec	r0
    296c:	d1 f7       	brne	.-12     	; 0x2962 <lrint+0x18>
    296e:	1c c0       	rjmp	.+56     	; 0x29a8 <lrint+0x5e>
    2970:	bb 27       	eor	r27, r27
    2972:	99 3f       	cpi	r25, 0xF9	; 249
    2974:	4c f4       	brge	.+18     	; 0x2988 <lrint+0x3e>
    2976:	b1 11       	cpse	r27, r1
    2978:	b1 e0       	ldi	r27, 0x01	; 1
    297a:	b6 2b       	or	r27, r22
    297c:	67 2f       	mov	r22, r23
    297e:	78 2f       	mov	r23, r24
    2980:	88 27       	eor	r24, r24
    2982:	98 5f       	subi	r25, 0xF8	; 248
    2984:	b1 f7       	brne	.-20     	; 0x2972 <lrint+0x28>
    2986:	08 c0       	rjmp	.+16     	; 0x2998 <lrint+0x4e>
    2988:	86 95       	lsr	r24
    298a:	77 95       	ror	r23
    298c:	67 95       	ror	r22
    298e:	b7 95       	ror	r27
    2990:	08 f4       	brcc	.+2      	; 0x2994 <lrint+0x4a>
    2992:	b1 60       	ori	r27, 0x01	; 1
    2994:	93 95       	inc	r25
    2996:	c1 f7       	brne	.-16     	; 0x2988 <lrint+0x3e>
    2998:	bb 0f       	add	r27, r27
    299a:	30 f4       	brcc	.+12     	; 0x29a8 <lrint+0x5e>
    299c:	11 f4       	brne	.+4      	; 0x29a2 <lrint+0x58>
    299e:	60 ff       	sbrs	r22, 0
    29a0:	03 c0       	rjmp	.+6      	; 0x29a8 <lrint+0x5e>
    29a2:	6f 5f       	subi	r22, 0xFF	; 255
    29a4:	7f 4f       	sbci	r23, 0xFF	; 255
    29a6:	8f 4f       	sbci	r24, 0xFF	; 255
    29a8:	3e f4       	brtc	.+14     	; 0x29b8 <lrint+0x6e>
    29aa:	90 95       	com	r25
    29ac:	80 95       	com	r24
    29ae:	70 95       	com	r23
    29b0:	61 95       	neg	r22
    29b2:	7f 4f       	sbci	r23, 0xFF	; 255
    29b4:	8f 4f       	sbci	r24, 0xFF	; 255
    29b6:	9f 4f       	sbci	r25, 0xFF	; 255
    29b8:	08 95       	ret
    29ba:	68 94       	set
    29bc:	0c 94 9f 14 	jmp	0x293e	; 0x293e <__fp_szero>
    29c0:	0c 94 9e 14 	jmp	0x293c	; 0x293c <__fp_zero>

000029c4 <__mulsf3>:
    29c4:	0e 94 f5 14 	call	0x29ea	; 0x29ea <__mulsf3x>
    29c8:	0c 94 6b 14 	jmp	0x28d6	; 0x28d6 <__fp_round>
    29cc:	0e 94 5d 14 	call	0x28ba	; 0x28ba <__fp_pscA>
    29d0:	38 f0       	brcs	.+14     	; 0x29e0 <__mulsf3+0x1c>
    29d2:	0e 94 64 14 	call	0x28c8	; 0x28c8 <__fp_pscB>
    29d6:	20 f0       	brcs	.+8      	; 0x29e0 <__mulsf3+0x1c>
    29d8:	95 23       	and	r25, r21
    29da:	11 f0       	breq	.+4      	; 0x29e0 <__mulsf3+0x1c>
    29dc:	0c 94 54 14 	jmp	0x28a8	; 0x28a8 <__fp_inf>
    29e0:	0c 94 5a 14 	jmp	0x28b4	; 0x28b4 <__fp_nan>
    29e4:	11 24       	eor	r1, r1
    29e6:	0c 94 9f 14 	jmp	0x293e	; 0x293e <__fp_szero>

000029ea <__mulsf3x>:
    29ea:	0e 94 7c 14 	call	0x28f8	; 0x28f8 <__fp_split3>
    29ee:	70 f3       	brcs	.-36     	; 0x29cc <__mulsf3+0x8>

000029f0 <__mulsf3_pse>:
    29f0:	95 9f       	mul	r25, r21
    29f2:	c1 f3       	breq	.-16     	; 0x29e4 <__mulsf3+0x20>
    29f4:	95 0f       	add	r25, r21
    29f6:	50 e0       	ldi	r21, 0x00	; 0
    29f8:	55 1f       	adc	r21, r21
    29fa:	62 9f       	mul	r22, r18
    29fc:	f0 01       	movw	r30, r0
    29fe:	72 9f       	mul	r23, r18
    2a00:	bb 27       	eor	r27, r27
    2a02:	f0 0d       	add	r31, r0
    2a04:	b1 1d       	adc	r27, r1
    2a06:	63 9f       	mul	r22, r19
    2a08:	aa 27       	eor	r26, r26
    2a0a:	f0 0d       	add	r31, r0
    2a0c:	b1 1d       	adc	r27, r1
    2a0e:	aa 1f       	adc	r26, r26
    2a10:	64 9f       	mul	r22, r20
    2a12:	66 27       	eor	r22, r22
    2a14:	b0 0d       	add	r27, r0
    2a16:	a1 1d       	adc	r26, r1
    2a18:	66 1f       	adc	r22, r22
    2a1a:	82 9f       	mul	r24, r18
    2a1c:	22 27       	eor	r18, r18
    2a1e:	b0 0d       	add	r27, r0
    2a20:	a1 1d       	adc	r26, r1
    2a22:	62 1f       	adc	r22, r18
    2a24:	73 9f       	mul	r23, r19
    2a26:	b0 0d       	add	r27, r0
    2a28:	a1 1d       	adc	r26, r1
    2a2a:	62 1f       	adc	r22, r18
    2a2c:	83 9f       	mul	r24, r19
    2a2e:	a0 0d       	add	r26, r0
    2a30:	61 1d       	adc	r22, r1
    2a32:	22 1f       	adc	r18, r18
    2a34:	74 9f       	mul	r23, r20
    2a36:	33 27       	eor	r19, r19
    2a38:	a0 0d       	add	r26, r0
    2a3a:	61 1d       	adc	r22, r1
    2a3c:	23 1f       	adc	r18, r19
    2a3e:	84 9f       	mul	r24, r20
    2a40:	60 0d       	add	r22, r0
    2a42:	21 1d       	adc	r18, r1
    2a44:	82 2f       	mov	r24, r18
    2a46:	76 2f       	mov	r23, r22
    2a48:	6a 2f       	mov	r22, r26
    2a4a:	11 24       	eor	r1, r1
    2a4c:	9f 57       	subi	r25, 0x7F	; 127
    2a4e:	50 40       	sbci	r21, 0x00	; 0
    2a50:	9a f0       	brmi	.+38     	; 0x2a78 <__mulsf3_pse+0x88>
    2a52:	f1 f0       	breq	.+60     	; 0x2a90 <__mulsf3_pse+0xa0>
    2a54:	88 23       	and	r24, r24
    2a56:	4a f0       	brmi	.+18     	; 0x2a6a <__mulsf3_pse+0x7a>
    2a58:	ee 0f       	add	r30, r30
    2a5a:	ff 1f       	adc	r31, r31
    2a5c:	bb 1f       	adc	r27, r27
    2a5e:	66 1f       	adc	r22, r22
    2a60:	77 1f       	adc	r23, r23
    2a62:	88 1f       	adc	r24, r24
    2a64:	91 50       	subi	r25, 0x01	; 1
    2a66:	50 40       	sbci	r21, 0x00	; 0
    2a68:	a9 f7       	brne	.-22     	; 0x2a54 <__mulsf3_pse+0x64>
    2a6a:	9e 3f       	cpi	r25, 0xFE	; 254
    2a6c:	51 05       	cpc	r21, r1
    2a6e:	80 f0       	brcs	.+32     	; 0x2a90 <__mulsf3_pse+0xa0>
    2a70:	0c 94 54 14 	jmp	0x28a8	; 0x28a8 <__fp_inf>
    2a74:	0c 94 9f 14 	jmp	0x293e	; 0x293e <__fp_szero>
    2a78:	5f 3f       	cpi	r21, 0xFF	; 255
    2a7a:	e4 f3       	brlt	.-8      	; 0x2a74 <__mulsf3_pse+0x84>
    2a7c:	98 3e       	cpi	r25, 0xE8	; 232
    2a7e:	d4 f3       	brlt	.-12     	; 0x2a74 <__mulsf3_pse+0x84>
    2a80:	86 95       	lsr	r24
    2a82:	77 95       	ror	r23
    2a84:	67 95       	ror	r22
    2a86:	b7 95       	ror	r27
    2a88:	f7 95       	ror	r31
    2a8a:	e7 95       	ror	r30
    2a8c:	9f 5f       	subi	r25, 0xFF	; 255
    2a8e:	c1 f7       	brne	.-16     	; 0x2a80 <__mulsf3_pse+0x90>
    2a90:	fe 2b       	or	r31, r30
    2a92:	88 0f       	add	r24, r24
    2a94:	91 1d       	adc	r25, r1
    2a96:	96 95       	lsr	r25
    2a98:	87 95       	ror	r24
    2a9a:	97 f9       	bld	r25, 7
    2a9c:	08 95       	ret

00002a9e <vfprintf>:
    2a9e:	a3 e1       	ldi	r26, 0x13	; 19
    2aa0:	b0 e0       	ldi	r27, 0x00	; 0
    2aa2:	e5 e5       	ldi	r30, 0x55	; 85
    2aa4:	f5 e1       	ldi	r31, 0x15	; 21
    2aa6:	0c 94 38 19 	jmp	0x3270	; 0x3270 <__prologue_saves__>
    2aaa:	6c 01       	movw	r12, r24
    2aac:	4b 01       	movw	r8, r22
    2aae:	2a 01       	movw	r4, r20
    2ab0:	fc 01       	movw	r30, r24
    2ab2:	17 82       	std	Z+7, r1	; 0x07
    2ab4:	16 82       	std	Z+6, r1	; 0x06
    2ab6:	83 81       	ldd	r24, Z+3	; 0x03
    2ab8:	81 ff       	sbrs	r24, 1
    2aba:	43 c3       	rjmp	.+1670   	; 0x3142 <vfprintf+0x6a4>
    2abc:	ae 01       	movw	r20, r28
    2abe:	4f 5f       	subi	r20, 0xFF	; 255
    2ac0:	5f 4f       	sbci	r21, 0xFF	; 255
    2ac2:	3a 01       	movw	r6, r20
    2ac4:	f6 01       	movw	r30, r12
    2ac6:	93 81       	ldd	r25, Z+3	; 0x03
    2ac8:	f4 01       	movw	r30, r8
    2aca:	93 fd       	sbrc	r25, 3
    2acc:	85 91       	lpm	r24, Z+
    2ace:	93 ff       	sbrs	r25, 3
    2ad0:	81 91       	ld	r24, Z+
    2ad2:	4f 01       	movw	r8, r30
    2ad4:	88 23       	and	r24, r24
    2ad6:	09 f4       	brne	.+2      	; 0x2ada <vfprintf+0x3c>
    2ad8:	30 c3       	rjmp	.+1632   	; 0x313a <vfprintf+0x69c>
    2ada:	85 32       	cpi	r24, 0x25	; 37
    2adc:	39 f4       	brne	.+14     	; 0x2aec <vfprintf+0x4e>
    2ade:	93 fd       	sbrc	r25, 3
    2ae0:	85 91       	lpm	r24, Z+
    2ae2:	93 ff       	sbrs	r25, 3
    2ae4:	81 91       	ld	r24, Z+
    2ae6:	4f 01       	movw	r8, r30
    2ae8:	85 32       	cpi	r24, 0x25	; 37
    2aea:	39 f4       	brne	.+14     	; 0x2afa <vfprintf+0x5c>
    2aec:	b6 01       	movw	r22, r12
    2aee:	90 e0       	ldi	r25, 0x00	; 0
    2af0:	0e 94 f6 1b 	call	0x37ec	; 0x37ec <fputc>
    2af4:	52 01       	movw	r10, r4
    2af6:	25 01       	movw	r4, r10
    2af8:	e5 cf       	rjmp	.-54     	; 0x2ac4 <vfprintf+0x26>
    2afa:	10 e0       	ldi	r17, 0x00	; 0
    2afc:	f1 2c       	mov	r15, r1
    2afe:	20 e0       	ldi	r18, 0x00	; 0
    2b00:	20 32       	cpi	r18, 0x20	; 32
    2b02:	a0 f4       	brcc	.+40     	; 0x2b2c <vfprintf+0x8e>
    2b04:	8b 32       	cpi	r24, 0x2B	; 43
    2b06:	69 f0       	breq	.+26     	; 0x2b22 <vfprintf+0x84>
    2b08:	30 f4       	brcc	.+12     	; 0x2b16 <vfprintf+0x78>
    2b0a:	80 32       	cpi	r24, 0x20	; 32
    2b0c:	59 f0       	breq	.+22     	; 0x2b24 <vfprintf+0x86>
    2b0e:	83 32       	cpi	r24, 0x23	; 35
    2b10:	69 f4       	brne	.+26     	; 0x2b2c <vfprintf+0x8e>
    2b12:	20 61       	ori	r18, 0x10	; 16
    2b14:	2c c0       	rjmp	.+88     	; 0x2b6e <vfprintf+0xd0>
    2b16:	8d 32       	cpi	r24, 0x2D	; 45
    2b18:	39 f0       	breq	.+14     	; 0x2b28 <vfprintf+0x8a>
    2b1a:	80 33       	cpi	r24, 0x30	; 48
    2b1c:	39 f4       	brne	.+14     	; 0x2b2c <vfprintf+0x8e>
    2b1e:	21 60       	ori	r18, 0x01	; 1
    2b20:	26 c0       	rjmp	.+76     	; 0x2b6e <vfprintf+0xd0>
    2b22:	22 60       	ori	r18, 0x02	; 2
    2b24:	24 60       	ori	r18, 0x04	; 4
    2b26:	23 c0       	rjmp	.+70     	; 0x2b6e <vfprintf+0xd0>
    2b28:	28 60       	ori	r18, 0x08	; 8
    2b2a:	21 c0       	rjmp	.+66     	; 0x2b6e <vfprintf+0xd0>
    2b2c:	27 fd       	sbrc	r18, 7
    2b2e:	27 c0       	rjmp	.+78     	; 0x2b7e <vfprintf+0xe0>
    2b30:	30 ed       	ldi	r19, 0xD0	; 208
    2b32:	38 0f       	add	r19, r24
    2b34:	3a 30       	cpi	r19, 0x0A	; 10
    2b36:	78 f4       	brcc	.+30     	; 0x2b56 <vfprintf+0xb8>
    2b38:	26 ff       	sbrs	r18, 6
    2b3a:	06 c0       	rjmp	.+12     	; 0x2b48 <vfprintf+0xaa>
    2b3c:	fa e0       	ldi	r31, 0x0A	; 10
    2b3e:	1f 9f       	mul	r17, r31
    2b40:	30 0d       	add	r19, r0
    2b42:	11 24       	eor	r1, r1
    2b44:	13 2f       	mov	r17, r19
    2b46:	13 c0       	rjmp	.+38     	; 0x2b6e <vfprintf+0xd0>
    2b48:	4a e0       	ldi	r20, 0x0A	; 10
    2b4a:	f4 9e       	mul	r15, r20
    2b4c:	30 0d       	add	r19, r0
    2b4e:	11 24       	eor	r1, r1
    2b50:	f3 2e       	mov	r15, r19
    2b52:	20 62       	ori	r18, 0x20	; 32
    2b54:	0c c0       	rjmp	.+24     	; 0x2b6e <vfprintf+0xd0>
    2b56:	8e 32       	cpi	r24, 0x2E	; 46
    2b58:	21 f4       	brne	.+8      	; 0x2b62 <vfprintf+0xc4>
    2b5a:	26 fd       	sbrc	r18, 6
    2b5c:	ee c2       	rjmp	.+1500   	; 0x313a <vfprintf+0x69c>
    2b5e:	20 64       	ori	r18, 0x40	; 64
    2b60:	06 c0       	rjmp	.+12     	; 0x2b6e <vfprintf+0xd0>
    2b62:	8c 36       	cpi	r24, 0x6C	; 108
    2b64:	11 f4       	brne	.+4      	; 0x2b6a <vfprintf+0xcc>
    2b66:	20 68       	ori	r18, 0x80	; 128
    2b68:	02 c0       	rjmp	.+4      	; 0x2b6e <vfprintf+0xd0>
    2b6a:	88 36       	cpi	r24, 0x68	; 104
    2b6c:	41 f4       	brne	.+16     	; 0x2b7e <vfprintf+0xe0>
    2b6e:	f4 01       	movw	r30, r8
    2b70:	93 fd       	sbrc	r25, 3
    2b72:	85 91       	lpm	r24, Z+
    2b74:	93 ff       	sbrs	r25, 3
    2b76:	81 91       	ld	r24, Z+
    2b78:	4f 01       	movw	r8, r30
    2b7a:	81 11       	cpse	r24, r1
    2b7c:	c1 cf       	rjmp	.-126    	; 0x2b00 <vfprintf+0x62>
    2b7e:	9b eb       	ldi	r25, 0xBB	; 187
    2b80:	98 0f       	add	r25, r24
    2b82:	93 30       	cpi	r25, 0x03	; 3
    2b84:	18 f4       	brcc	.+6      	; 0x2b8c <vfprintf+0xee>
    2b86:	20 61       	ori	r18, 0x10	; 16
    2b88:	80 5e       	subi	r24, 0xE0	; 224
    2b8a:	06 c0       	rjmp	.+12     	; 0x2b98 <vfprintf+0xfa>
    2b8c:	9b e9       	ldi	r25, 0x9B	; 155
    2b8e:	98 0f       	add	r25, r24
    2b90:	93 30       	cpi	r25, 0x03	; 3
    2b92:	08 f0       	brcs	.+2      	; 0x2b96 <vfprintf+0xf8>
    2b94:	71 c1       	rjmp	.+738    	; 0x2e78 <vfprintf+0x3da>
    2b96:	2f 7e       	andi	r18, 0xEF	; 239
    2b98:	26 ff       	sbrs	r18, 6
    2b9a:	16 e0       	ldi	r17, 0x06	; 6
    2b9c:	2f 73       	andi	r18, 0x3F	; 63
    2b9e:	32 2e       	mov	r3, r18
    2ba0:	85 36       	cpi	r24, 0x65	; 101
    2ba2:	19 f4       	brne	.+6      	; 0x2baa <vfprintf+0x10c>
    2ba4:	20 64       	ori	r18, 0x40	; 64
    2ba6:	32 2e       	mov	r3, r18
    2ba8:	08 c0       	rjmp	.+16     	; 0x2bba <vfprintf+0x11c>
    2baa:	86 36       	cpi	r24, 0x66	; 102
    2bac:	21 f4       	brne	.+8      	; 0x2bb6 <vfprintf+0x118>
    2bae:	f2 2f       	mov	r31, r18
    2bb0:	f0 68       	ori	r31, 0x80	; 128
    2bb2:	3f 2e       	mov	r3, r31
    2bb4:	02 c0       	rjmp	.+4      	; 0x2bba <vfprintf+0x11c>
    2bb6:	11 11       	cpse	r17, r1
    2bb8:	11 50       	subi	r17, 0x01	; 1
    2bba:	37 fe       	sbrs	r3, 7
    2bbc:	07 c0       	rjmp	.+14     	; 0x2bcc <vfprintf+0x12e>
    2bbe:	1c 33       	cpi	r17, 0x3C	; 60
    2bc0:	50 f4       	brcc	.+20     	; 0x2bd6 <vfprintf+0x138>
    2bc2:	ee 24       	eor	r14, r14
    2bc4:	e3 94       	inc	r14
    2bc6:	e1 0e       	add	r14, r17
    2bc8:	27 e0       	ldi	r18, 0x07	; 7
    2bca:	0b c0       	rjmp	.+22     	; 0x2be2 <vfprintf+0x144>
    2bcc:	18 30       	cpi	r17, 0x08	; 8
    2bce:	38 f0       	brcs	.+14     	; 0x2bde <vfprintf+0x140>
    2bd0:	27 e0       	ldi	r18, 0x07	; 7
    2bd2:	17 e0       	ldi	r17, 0x07	; 7
    2bd4:	05 c0       	rjmp	.+10     	; 0x2be0 <vfprintf+0x142>
    2bd6:	27 e0       	ldi	r18, 0x07	; 7
    2bd8:	4c e3       	ldi	r20, 0x3C	; 60
    2bda:	e4 2e       	mov	r14, r20
    2bdc:	02 c0       	rjmp	.+4      	; 0x2be2 <vfprintf+0x144>
    2bde:	21 2f       	mov	r18, r17
    2be0:	e1 2c       	mov	r14, r1
    2be2:	52 01       	movw	r10, r4
    2be4:	44 e0       	ldi	r20, 0x04	; 4
    2be6:	a4 0e       	add	r10, r20
    2be8:	b1 1c       	adc	r11, r1
    2bea:	f2 01       	movw	r30, r4
    2bec:	60 81       	ld	r22, Z
    2bee:	71 81       	ldd	r23, Z+1	; 0x01
    2bf0:	82 81       	ldd	r24, Z+2	; 0x02
    2bf2:	93 81       	ldd	r25, Z+3	; 0x03
    2bf4:	0e 2d       	mov	r16, r14
    2bf6:	a3 01       	movw	r20, r6
    2bf8:	0e 94 ab 1a 	call	0x3556	; 0x3556 <__ftoa_engine>
    2bfc:	2c 01       	movw	r4, r24
    2bfe:	09 81       	ldd	r16, Y+1	; 0x01
    2c00:	00 ff       	sbrs	r16, 0
    2c02:	02 c0       	rjmp	.+4      	; 0x2c08 <vfprintf+0x16a>
    2c04:	03 ff       	sbrs	r16, 3
    2c06:	07 c0       	rjmp	.+14     	; 0x2c16 <vfprintf+0x178>
    2c08:	31 fc       	sbrc	r3, 1
    2c0a:	08 c0       	rjmp	.+16     	; 0x2c1c <vfprintf+0x17e>
    2c0c:	32 fe       	sbrs	r3, 2
    2c0e:	09 c0       	rjmp	.+18     	; 0x2c22 <vfprintf+0x184>
    2c10:	30 e2       	ldi	r19, 0x20	; 32
    2c12:	23 2e       	mov	r2, r19
    2c14:	07 c0       	rjmp	.+14     	; 0x2c24 <vfprintf+0x186>
    2c16:	2d e2       	ldi	r18, 0x2D	; 45
    2c18:	22 2e       	mov	r2, r18
    2c1a:	04 c0       	rjmp	.+8      	; 0x2c24 <vfprintf+0x186>
    2c1c:	9b e2       	ldi	r25, 0x2B	; 43
    2c1e:	29 2e       	mov	r2, r25
    2c20:	01 c0       	rjmp	.+2      	; 0x2c24 <vfprintf+0x186>
    2c22:	21 2c       	mov	r2, r1
    2c24:	80 2f       	mov	r24, r16
    2c26:	8c 70       	andi	r24, 0x0C	; 12
    2c28:	19 f0       	breq	.+6      	; 0x2c30 <vfprintf+0x192>
    2c2a:	21 10       	cpse	r2, r1
    2c2c:	68 c2       	rjmp	.+1232   	; 0x30fe <vfprintf+0x660>
    2c2e:	a8 c2       	rjmp	.+1360   	; 0x3180 <vfprintf+0x6e2>
    2c30:	37 fe       	sbrs	r3, 7
    2c32:	0f c0       	rjmp	.+30     	; 0x2c52 <vfprintf+0x1b4>
    2c34:	e4 0c       	add	r14, r4
    2c36:	04 ff       	sbrs	r16, 4
    2c38:	04 c0       	rjmp	.+8      	; 0x2c42 <vfprintf+0x1a4>
    2c3a:	8a 81       	ldd	r24, Y+2	; 0x02
    2c3c:	81 33       	cpi	r24, 0x31	; 49
    2c3e:	09 f4       	brne	.+2      	; 0x2c42 <vfprintf+0x1a4>
    2c40:	ea 94       	dec	r14
    2c42:	1e 14       	cp	r1, r14
    2c44:	74 f5       	brge	.+92     	; 0x2ca2 <vfprintf+0x204>
    2c46:	f8 e0       	ldi	r31, 0x08	; 8
    2c48:	fe 15       	cp	r31, r14
    2c4a:	78 f5       	brcc	.+94     	; 0x2caa <vfprintf+0x20c>
    2c4c:	88 e0       	ldi	r24, 0x08	; 8
    2c4e:	e8 2e       	mov	r14, r24
    2c50:	2c c0       	rjmp	.+88     	; 0x2caa <vfprintf+0x20c>
    2c52:	36 fc       	sbrc	r3, 6
    2c54:	2a c0       	rjmp	.+84     	; 0x2caa <vfprintf+0x20c>
    2c56:	81 2f       	mov	r24, r17
    2c58:	90 e0       	ldi	r25, 0x00	; 0
    2c5a:	84 15       	cp	r24, r4
    2c5c:	95 05       	cpc	r25, r5
    2c5e:	9c f0       	brlt	.+38     	; 0x2c86 <vfprintf+0x1e8>
    2c60:	2c ef       	ldi	r18, 0xFC	; 252
    2c62:	42 16       	cp	r4, r18
    2c64:	2f ef       	ldi	r18, 0xFF	; 255
    2c66:	52 06       	cpc	r5, r18
    2c68:	74 f0       	brlt	.+28     	; 0x2c86 <vfprintf+0x1e8>
    2c6a:	43 2d       	mov	r20, r3
    2c6c:	40 68       	ori	r20, 0x80	; 128
    2c6e:	34 2e       	mov	r3, r20
    2c70:	0a c0       	rjmp	.+20     	; 0x2c86 <vfprintf+0x1e8>
    2c72:	e2 e0       	ldi	r30, 0x02	; 2
    2c74:	f0 e0       	ldi	r31, 0x00	; 0
    2c76:	ec 0f       	add	r30, r28
    2c78:	fd 1f       	adc	r31, r29
    2c7a:	e1 0f       	add	r30, r17
    2c7c:	f1 1d       	adc	r31, r1
    2c7e:	80 81       	ld	r24, Z
    2c80:	80 33       	cpi	r24, 0x30	; 48
    2c82:	19 f4       	brne	.+6      	; 0x2c8a <vfprintf+0x1ec>
    2c84:	11 50       	subi	r17, 0x01	; 1
    2c86:	11 11       	cpse	r17, r1
    2c88:	f4 cf       	rjmp	.-24     	; 0x2c72 <vfprintf+0x1d4>
    2c8a:	37 fe       	sbrs	r3, 7
    2c8c:	0e c0       	rjmp	.+28     	; 0x2caa <vfprintf+0x20c>
    2c8e:	ee 24       	eor	r14, r14
    2c90:	e3 94       	inc	r14
    2c92:	e1 0e       	add	r14, r17
    2c94:	81 2f       	mov	r24, r17
    2c96:	90 e0       	ldi	r25, 0x00	; 0
    2c98:	48 16       	cp	r4, r24
    2c9a:	59 06       	cpc	r5, r25
    2c9c:	2c f4       	brge	.+10     	; 0x2ca8 <vfprintf+0x20a>
    2c9e:	14 19       	sub	r17, r4
    2ca0:	04 c0       	rjmp	.+8      	; 0x2caa <vfprintf+0x20c>
    2ca2:	ee 24       	eor	r14, r14
    2ca4:	e3 94       	inc	r14
    2ca6:	01 c0       	rjmp	.+2      	; 0x2caa <vfprintf+0x20c>
    2ca8:	10 e0       	ldi	r17, 0x00	; 0
    2caa:	37 fe       	sbrs	r3, 7
    2cac:	06 c0       	rjmp	.+12     	; 0x2cba <vfprintf+0x21c>
    2cae:	14 14       	cp	r1, r4
    2cb0:	15 04       	cpc	r1, r5
    2cb2:	34 f4       	brge	.+12     	; 0x2cc0 <vfprintf+0x222>
    2cb4:	c2 01       	movw	r24, r4
    2cb6:	01 96       	adiw	r24, 0x01	; 1
    2cb8:	05 c0       	rjmp	.+10     	; 0x2cc4 <vfprintf+0x226>
    2cba:	85 e0       	ldi	r24, 0x05	; 5
    2cbc:	90 e0       	ldi	r25, 0x00	; 0
    2cbe:	02 c0       	rjmp	.+4      	; 0x2cc4 <vfprintf+0x226>
    2cc0:	81 e0       	ldi	r24, 0x01	; 1
    2cc2:	90 e0       	ldi	r25, 0x00	; 0
    2cc4:	21 10       	cpse	r2, r1
    2cc6:	01 96       	adiw	r24, 0x01	; 1
    2cc8:	11 23       	and	r17, r17
    2cca:	31 f0       	breq	.+12     	; 0x2cd8 <vfprintf+0x23a>
    2ccc:	21 2f       	mov	r18, r17
    2cce:	30 e0       	ldi	r19, 0x00	; 0
    2cd0:	2f 5f       	subi	r18, 0xFF	; 255
    2cd2:	3f 4f       	sbci	r19, 0xFF	; 255
    2cd4:	82 0f       	add	r24, r18
    2cd6:	93 1f       	adc	r25, r19
    2cd8:	2f 2d       	mov	r18, r15
    2cda:	30 e0       	ldi	r19, 0x00	; 0
    2cdc:	82 17       	cp	r24, r18
    2cde:	93 07       	cpc	r25, r19
    2ce0:	14 f4       	brge	.+4      	; 0x2ce6 <vfprintf+0x248>
    2ce2:	f8 1a       	sub	r15, r24
    2ce4:	01 c0       	rjmp	.+2      	; 0x2ce8 <vfprintf+0x24a>
    2ce6:	f1 2c       	mov	r15, r1
    2ce8:	83 2d       	mov	r24, r3
    2cea:	89 70       	andi	r24, 0x09	; 9
    2cec:	49 f4       	brne	.+18     	; 0x2d00 <vfprintf+0x262>
    2cee:	ff 20       	and	r15, r15
    2cf0:	39 f0       	breq	.+14     	; 0x2d00 <vfprintf+0x262>
    2cf2:	b6 01       	movw	r22, r12
    2cf4:	80 e2       	ldi	r24, 0x20	; 32
    2cf6:	90 e0       	ldi	r25, 0x00	; 0
    2cf8:	0e 94 f6 1b 	call	0x37ec	; 0x37ec <fputc>
    2cfc:	fa 94       	dec	r15
    2cfe:	f7 cf       	rjmp	.-18     	; 0x2cee <vfprintf+0x250>
    2d00:	22 20       	and	r2, r2
    2d02:	29 f0       	breq	.+10     	; 0x2d0e <vfprintf+0x270>
    2d04:	b6 01       	movw	r22, r12
    2d06:	82 2d       	mov	r24, r2
    2d08:	90 e0       	ldi	r25, 0x00	; 0
    2d0a:	0e 94 f6 1b 	call	0x37ec	; 0x37ec <fputc>
    2d0e:	33 fc       	sbrc	r3, 3
    2d10:	09 c0       	rjmp	.+18     	; 0x2d24 <vfprintf+0x286>
    2d12:	ff 20       	and	r15, r15
    2d14:	39 f0       	breq	.+14     	; 0x2d24 <vfprintf+0x286>
    2d16:	b6 01       	movw	r22, r12
    2d18:	80 e3       	ldi	r24, 0x30	; 48
    2d1a:	90 e0       	ldi	r25, 0x00	; 0
    2d1c:	0e 94 f6 1b 	call	0x37ec	; 0x37ec <fputc>
    2d20:	fa 94       	dec	r15
    2d22:	f7 cf       	rjmp	.-18     	; 0x2d12 <vfprintf+0x274>
    2d24:	37 fe       	sbrs	r3, 7
    2d26:	5a c0       	rjmp	.+180    	; 0x2ddc <vfprintf+0x33e>
    2d28:	94 2d       	mov	r25, r4
    2d2a:	85 2d       	mov	r24, r5
    2d2c:	57 fe       	sbrs	r5, 7
    2d2e:	02 c0       	rjmp	.+4      	; 0x2d34 <vfprintf+0x296>
    2d30:	90 e0       	ldi	r25, 0x00	; 0
    2d32:	80 e0       	ldi	r24, 0x00	; 0
    2d34:	29 2e       	mov	r2, r25
    2d36:	38 2e       	mov	r3, r24
    2d38:	20 e0       	ldi	r18, 0x00	; 0
    2d3a:	30 e0       	ldi	r19, 0x00	; 0
    2d3c:	a2 01       	movw	r20, r4
    2d3e:	4e 19       	sub	r20, r14
    2d40:	51 09       	sbc	r21, r1
    2d42:	5d 87       	std	Y+13, r21	; 0x0d
    2d44:	4c 87       	std	Y+12, r20	; 0x0c
    2d46:	a2 01       	movw	r20, r4
    2d48:	42 19       	sub	r20, r2
    2d4a:	53 09       	sbc	r21, r3
    2d4c:	5f 87       	std	Y+15, r21	; 0x0f
    2d4e:	4e 87       	std	Y+14, r20	; 0x0e
    2d50:	61 2f       	mov	r22, r17
    2d52:	70 e0       	ldi	r23, 0x00	; 0
    2d54:	44 27       	eor	r20, r20
    2d56:	55 27       	eor	r21, r21
    2d58:	46 1b       	sub	r20, r22
    2d5a:	57 0b       	sbc	r21, r23
    2d5c:	59 8b       	std	Y+17, r21	; 0x11
    2d5e:	48 8b       	std	Y+16, r20	; 0x10
    2d60:	5f ef       	ldi	r21, 0xFF	; 255
    2d62:	25 16       	cp	r2, r21
    2d64:	35 06       	cpc	r3, r21
    2d66:	49 f4       	brne	.+18     	; 0x2d7a <vfprintf+0x2dc>
    2d68:	b6 01       	movw	r22, r12
    2d6a:	8e e2       	ldi	r24, 0x2E	; 46
    2d6c:	90 e0       	ldi	r25, 0x00	; 0
    2d6e:	2a 8b       	std	Y+18, r18	; 0x12
    2d70:	3b 8b       	std	Y+19, r19	; 0x13
    2d72:	0e 94 f6 1b 	call	0x37ec	; 0x37ec <fputc>
    2d76:	3b 89       	ldd	r19, Y+19	; 0x13
    2d78:	2a 89       	ldd	r18, Y+18	; 0x12
    2d7a:	42 14       	cp	r4, r2
    2d7c:	53 04       	cpc	r5, r3
    2d7e:	6c f0       	brlt	.+26     	; 0x2d9a <vfprintf+0x2fc>
    2d80:	4c 85       	ldd	r20, Y+12	; 0x0c
    2d82:	5d 85       	ldd	r21, Y+13	; 0x0d
    2d84:	42 15       	cp	r20, r2
    2d86:	53 05       	cpc	r21, r3
    2d88:	44 f4       	brge	.+16     	; 0x2d9a <vfprintf+0x2fc>
    2d8a:	ee 85       	ldd	r30, Y+14	; 0x0e
    2d8c:	ff 85       	ldd	r31, Y+15	; 0x0f
    2d8e:	e2 0f       	add	r30, r18
    2d90:	f3 1f       	adc	r31, r19
    2d92:	e6 0d       	add	r30, r6
    2d94:	f7 1d       	adc	r31, r7
    2d96:	81 81       	ldd	r24, Z+1	; 0x01
    2d98:	01 c0       	rjmp	.+2      	; 0x2d9c <vfprintf+0x2fe>
    2d9a:	80 e3       	ldi	r24, 0x30	; 48
    2d9c:	51 e0       	ldi	r21, 0x01	; 1
    2d9e:	25 1a       	sub	r2, r21
    2da0:	31 08       	sbc	r3, r1
    2da2:	2f 5f       	subi	r18, 0xFF	; 255
    2da4:	3f 4f       	sbci	r19, 0xFF	; 255
    2da6:	48 89       	ldd	r20, Y+16	; 0x10
    2da8:	59 89       	ldd	r21, Y+17	; 0x11
    2daa:	24 16       	cp	r2, r20
    2dac:	35 06       	cpc	r3, r21
    2dae:	4c f0       	brlt	.+18     	; 0x2dc2 <vfprintf+0x324>
    2db0:	b6 01       	movw	r22, r12
    2db2:	90 e0       	ldi	r25, 0x00	; 0
    2db4:	2a 8b       	std	Y+18, r18	; 0x12
    2db6:	3b 8b       	std	Y+19, r19	; 0x13
    2db8:	0e 94 f6 1b 	call	0x37ec	; 0x37ec <fputc>
    2dbc:	2a 89       	ldd	r18, Y+18	; 0x12
    2dbe:	3b 89       	ldd	r19, Y+19	; 0x13
    2dc0:	cf cf       	rjmp	.-98     	; 0x2d60 <vfprintf+0x2c2>
    2dc2:	24 14       	cp	r2, r4
    2dc4:	35 04       	cpc	r3, r5
    2dc6:	39 f4       	brne	.+14     	; 0x2dd6 <vfprintf+0x338>
    2dc8:	9a 81       	ldd	r25, Y+2	; 0x02
    2dca:	96 33       	cpi	r25, 0x36	; 54
    2dcc:	18 f4       	brcc	.+6      	; 0x2dd4 <vfprintf+0x336>
    2dce:	95 33       	cpi	r25, 0x35	; 53
    2dd0:	11 f4       	brne	.+4      	; 0x2dd6 <vfprintf+0x338>
    2dd2:	04 ff       	sbrs	r16, 4
    2dd4:	81 e3       	ldi	r24, 0x31	; 49
    2dd6:	b6 01       	movw	r22, r12
    2dd8:	90 e0       	ldi	r25, 0x00	; 0
    2dda:	4b c0       	rjmp	.+150    	; 0x2e72 <vfprintf+0x3d4>
    2ddc:	8a 81       	ldd	r24, Y+2	; 0x02
    2dde:	81 33       	cpi	r24, 0x31	; 49
    2de0:	09 f0       	breq	.+2      	; 0x2de4 <vfprintf+0x346>
    2de2:	0f 7e       	andi	r16, 0xEF	; 239
    2de4:	b6 01       	movw	r22, r12
    2de6:	90 e0       	ldi	r25, 0x00	; 0
    2de8:	0e 94 f6 1b 	call	0x37ec	; 0x37ec <fputc>
    2dec:	11 11       	cpse	r17, r1
    2dee:	05 c0       	rjmp	.+10     	; 0x2dfa <vfprintf+0x35c>
    2df0:	34 fc       	sbrc	r3, 4
    2df2:	18 c0       	rjmp	.+48     	; 0x2e24 <vfprintf+0x386>
    2df4:	85 e6       	ldi	r24, 0x65	; 101
    2df6:	90 e0       	ldi	r25, 0x00	; 0
    2df8:	17 c0       	rjmp	.+46     	; 0x2e28 <vfprintf+0x38a>
    2dfa:	b6 01       	movw	r22, r12
    2dfc:	8e e2       	ldi	r24, 0x2E	; 46
    2dfe:	90 e0       	ldi	r25, 0x00	; 0
    2e00:	0e 94 f6 1b 	call	0x37ec	; 0x37ec <fputc>
    2e04:	82 e0       	ldi	r24, 0x02	; 2
    2e06:	ee 24       	eor	r14, r14
    2e08:	e3 94       	inc	r14
    2e0a:	e8 0e       	add	r14, r24
    2e0c:	f3 01       	movw	r30, r6
    2e0e:	e8 0f       	add	r30, r24
    2e10:	f1 1d       	adc	r31, r1
    2e12:	80 81       	ld	r24, Z
    2e14:	b6 01       	movw	r22, r12
    2e16:	90 e0       	ldi	r25, 0x00	; 0
    2e18:	0e 94 f6 1b 	call	0x37ec	; 0x37ec <fputc>
    2e1c:	11 50       	subi	r17, 0x01	; 1
    2e1e:	8e 2d       	mov	r24, r14
    2e20:	91 f7       	brne	.-28     	; 0x2e06 <vfprintf+0x368>
    2e22:	e6 cf       	rjmp	.-52     	; 0x2df0 <vfprintf+0x352>
    2e24:	85 e4       	ldi	r24, 0x45	; 69
    2e26:	90 e0       	ldi	r25, 0x00	; 0
    2e28:	b6 01       	movw	r22, r12
    2e2a:	0e 94 f6 1b 	call	0x37ec	; 0x37ec <fputc>
    2e2e:	57 fc       	sbrc	r5, 7
    2e30:	05 c0       	rjmp	.+10     	; 0x2e3c <vfprintf+0x39e>
    2e32:	41 14       	cp	r4, r1
    2e34:	51 04       	cpc	r5, r1
    2e36:	39 f4       	brne	.+14     	; 0x2e46 <vfprintf+0x3a8>
    2e38:	04 ff       	sbrs	r16, 4
    2e3a:	05 c0       	rjmp	.+10     	; 0x2e46 <vfprintf+0x3a8>
    2e3c:	51 94       	neg	r5
    2e3e:	41 94       	neg	r4
    2e40:	51 08       	sbc	r5, r1
    2e42:	8d e2       	ldi	r24, 0x2D	; 45
    2e44:	01 c0       	rjmp	.+2      	; 0x2e48 <vfprintf+0x3aa>
    2e46:	8b e2       	ldi	r24, 0x2B	; 43
    2e48:	b6 01       	movw	r22, r12
    2e4a:	90 e0       	ldi	r25, 0x00	; 0
    2e4c:	0e 94 f6 1b 	call	0x37ec	; 0x37ec <fputc>
    2e50:	80 e3       	ldi	r24, 0x30	; 48
    2e52:	9a e0       	ldi	r25, 0x0A	; 10
    2e54:	49 16       	cp	r4, r25
    2e56:	51 04       	cpc	r5, r1
    2e58:	2c f0       	brlt	.+10     	; 0x2e64 <vfprintf+0x3c6>
    2e5a:	8f 5f       	subi	r24, 0xFF	; 255
    2e5c:	5a e0       	ldi	r21, 0x0A	; 10
    2e5e:	45 1a       	sub	r4, r21
    2e60:	51 08       	sbc	r5, r1
    2e62:	f7 cf       	rjmp	.-18     	; 0x2e52 <vfprintf+0x3b4>
    2e64:	b6 01       	movw	r22, r12
    2e66:	90 e0       	ldi	r25, 0x00	; 0
    2e68:	0e 94 f6 1b 	call	0x37ec	; 0x37ec <fputc>
    2e6c:	b6 01       	movw	r22, r12
    2e6e:	c2 01       	movw	r24, r4
    2e70:	c0 96       	adiw	r24, 0x30	; 48
    2e72:	0e 94 f6 1b 	call	0x37ec	; 0x37ec <fputc>
    2e76:	57 c1       	rjmp	.+686    	; 0x3126 <vfprintf+0x688>
    2e78:	83 36       	cpi	r24, 0x63	; 99
    2e7a:	31 f0       	breq	.+12     	; 0x2e88 <vfprintf+0x3ea>
    2e7c:	83 37       	cpi	r24, 0x73	; 115
    2e7e:	79 f0       	breq	.+30     	; 0x2e9e <vfprintf+0x400>
    2e80:	83 35       	cpi	r24, 0x53	; 83
    2e82:	09 f0       	breq	.+2      	; 0x2e86 <vfprintf+0x3e8>
    2e84:	58 c0       	rjmp	.+176    	; 0x2f36 <vfprintf+0x498>
    2e86:	21 c0       	rjmp	.+66     	; 0x2eca <vfprintf+0x42c>
    2e88:	52 01       	movw	r10, r4
    2e8a:	e2 e0       	ldi	r30, 0x02	; 2
    2e8c:	ae 0e       	add	r10, r30
    2e8e:	b1 1c       	adc	r11, r1
    2e90:	f2 01       	movw	r30, r4
    2e92:	80 81       	ld	r24, Z
    2e94:	89 83       	std	Y+1, r24	; 0x01
    2e96:	01 e0       	ldi	r16, 0x01	; 1
    2e98:	10 e0       	ldi	r17, 0x00	; 0
    2e9a:	23 01       	movw	r4, r6
    2e9c:	14 c0       	rjmp	.+40     	; 0x2ec6 <vfprintf+0x428>
    2e9e:	52 01       	movw	r10, r4
    2ea0:	f2 e0       	ldi	r31, 0x02	; 2
    2ea2:	af 0e       	add	r10, r31
    2ea4:	b1 1c       	adc	r11, r1
    2ea6:	f2 01       	movw	r30, r4
    2ea8:	40 80       	ld	r4, Z
    2eaa:	51 80       	ldd	r5, Z+1	; 0x01
    2eac:	26 ff       	sbrs	r18, 6
    2eae:	03 c0       	rjmp	.+6      	; 0x2eb6 <vfprintf+0x418>
    2eb0:	61 2f       	mov	r22, r17
    2eb2:	70 e0       	ldi	r23, 0x00	; 0
    2eb4:	02 c0       	rjmp	.+4      	; 0x2eba <vfprintf+0x41c>
    2eb6:	6f ef       	ldi	r22, 0xFF	; 255
    2eb8:	7f ef       	ldi	r23, 0xFF	; 255
    2eba:	c2 01       	movw	r24, r4
    2ebc:	2a 8b       	std	Y+18, r18	; 0x12
    2ebe:	0e 94 8e 1b 	call	0x371c	; 0x371c <strnlen>
    2ec2:	8c 01       	movw	r16, r24
    2ec4:	2a 89       	ldd	r18, Y+18	; 0x12
    2ec6:	2f 77       	andi	r18, 0x7F	; 127
    2ec8:	15 c0       	rjmp	.+42     	; 0x2ef4 <vfprintf+0x456>
    2eca:	52 01       	movw	r10, r4
    2ecc:	f2 e0       	ldi	r31, 0x02	; 2
    2ece:	af 0e       	add	r10, r31
    2ed0:	b1 1c       	adc	r11, r1
    2ed2:	f2 01       	movw	r30, r4
    2ed4:	40 80       	ld	r4, Z
    2ed6:	51 80       	ldd	r5, Z+1	; 0x01
    2ed8:	26 ff       	sbrs	r18, 6
    2eda:	03 c0       	rjmp	.+6      	; 0x2ee2 <vfprintf+0x444>
    2edc:	61 2f       	mov	r22, r17
    2ede:	70 e0       	ldi	r23, 0x00	; 0
    2ee0:	02 c0       	rjmp	.+4      	; 0x2ee6 <vfprintf+0x448>
    2ee2:	6f ef       	ldi	r22, 0xFF	; 255
    2ee4:	7f ef       	ldi	r23, 0xFF	; 255
    2ee6:	c2 01       	movw	r24, r4
    2ee8:	2a 8b       	std	Y+18, r18	; 0x12
    2eea:	0e 94 83 1b 	call	0x3706	; 0x3706 <strnlen_P>
    2eee:	8c 01       	movw	r16, r24
    2ef0:	2a 89       	ldd	r18, Y+18	; 0x12
    2ef2:	20 68       	ori	r18, 0x80	; 128
    2ef4:	32 2e       	mov	r3, r18
    2ef6:	23 fd       	sbrc	r18, 3
    2ef8:	1a c0       	rjmp	.+52     	; 0x2f2e <vfprintf+0x490>
    2efa:	8f 2d       	mov	r24, r15
    2efc:	90 e0       	ldi	r25, 0x00	; 0
    2efe:	08 17       	cp	r16, r24
    2f00:	19 07       	cpc	r17, r25
    2f02:	a8 f4       	brcc	.+42     	; 0x2f2e <vfprintf+0x490>
    2f04:	b6 01       	movw	r22, r12
    2f06:	80 e2       	ldi	r24, 0x20	; 32
    2f08:	90 e0       	ldi	r25, 0x00	; 0
    2f0a:	0e 94 f6 1b 	call	0x37ec	; 0x37ec <fputc>
    2f0e:	fa 94       	dec	r15
    2f10:	f4 cf       	rjmp	.-24     	; 0x2efa <vfprintf+0x45c>
    2f12:	f2 01       	movw	r30, r4
    2f14:	37 fc       	sbrc	r3, 7
    2f16:	85 91       	lpm	r24, Z+
    2f18:	37 fe       	sbrs	r3, 7
    2f1a:	81 91       	ld	r24, Z+
    2f1c:	2f 01       	movw	r4, r30
    2f1e:	b6 01       	movw	r22, r12
    2f20:	90 e0       	ldi	r25, 0x00	; 0
    2f22:	0e 94 f6 1b 	call	0x37ec	; 0x37ec <fputc>
    2f26:	f1 10       	cpse	r15, r1
    2f28:	fa 94       	dec	r15
    2f2a:	01 50       	subi	r16, 0x01	; 1
    2f2c:	11 09       	sbc	r17, r1
    2f2e:	01 15       	cp	r16, r1
    2f30:	11 05       	cpc	r17, r1
    2f32:	79 f7       	brne	.-34     	; 0x2f12 <vfprintf+0x474>
    2f34:	f8 c0       	rjmp	.+496    	; 0x3126 <vfprintf+0x688>
    2f36:	84 36       	cpi	r24, 0x64	; 100
    2f38:	11 f0       	breq	.+4      	; 0x2f3e <vfprintf+0x4a0>
    2f3a:	89 36       	cpi	r24, 0x69	; 105
    2f3c:	59 f5       	brne	.+86     	; 0x2f94 <vfprintf+0x4f6>
    2f3e:	52 01       	movw	r10, r4
    2f40:	27 ff       	sbrs	r18, 7
    2f42:	09 c0       	rjmp	.+18     	; 0x2f56 <vfprintf+0x4b8>
    2f44:	f4 e0       	ldi	r31, 0x04	; 4
    2f46:	af 0e       	add	r10, r31
    2f48:	b1 1c       	adc	r11, r1
    2f4a:	f2 01       	movw	r30, r4
    2f4c:	60 81       	ld	r22, Z
    2f4e:	71 81       	ldd	r23, Z+1	; 0x01
    2f50:	82 81       	ldd	r24, Z+2	; 0x02
    2f52:	93 81       	ldd	r25, Z+3	; 0x03
    2f54:	0a c0       	rjmp	.+20     	; 0x2f6a <vfprintf+0x4cc>
    2f56:	f2 e0       	ldi	r31, 0x02	; 2
    2f58:	af 0e       	add	r10, r31
    2f5a:	b1 1c       	adc	r11, r1
    2f5c:	f2 01       	movw	r30, r4
    2f5e:	60 81       	ld	r22, Z
    2f60:	71 81       	ldd	r23, Z+1	; 0x01
    2f62:	07 2e       	mov	r0, r23
    2f64:	00 0c       	add	r0, r0
    2f66:	88 0b       	sbc	r24, r24
    2f68:	99 0b       	sbc	r25, r25
    2f6a:	2f 76       	andi	r18, 0x6F	; 111
    2f6c:	32 2e       	mov	r3, r18
    2f6e:	97 ff       	sbrs	r25, 7
    2f70:	09 c0       	rjmp	.+18     	; 0x2f84 <vfprintf+0x4e6>
    2f72:	90 95       	com	r25
    2f74:	80 95       	com	r24
    2f76:	70 95       	com	r23
    2f78:	61 95       	neg	r22
    2f7a:	7f 4f       	sbci	r23, 0xFF	; 255
    2f7c:	8f 4f       	sbci	r24, 0xFF	; 255
    2f7e:	9f 4f       	sbci	r25, 0xFF	; 255
    2f80:	20 68       	ori	r18, 0x80	; 128
    2f82:	32 2e       	mov	r3, r18
    2f84:	2a e0       	ldi	r18, 0x0A	; 10
    2f86:	30 e0       	ldi	r19, 0x00	; 0
    2f88:	a3 01       	movw	r20, r6
    2f8a:	0e 94 51 1c 	call	0x38a2	; 0x38a2 <__ultoa_invert>
    2f8e:	e8 2e       	mov	r14, r24
    2f90:	e6 18       	sub	r14, r6
    2f92:	3f c0       	rjmp	.+126    	; 0x3012 <vfprintf+0x574>
    2f94:	02 2f       	mov	r16, r18
    2f96:	85 37       	cpi	r24, 0x75	; 117
    2f98:	21 f4       	brne	.+8      	; 0x2fa2 <vfprintf+0x504>
    2f9a:	0f 7e       	andi	r16, 0xEF	; 239
    2f9c:	2a e0       	ldi	r18, 0x0A	; 10
    2f9e:	30 e0       	ldi	r19, 0x00	; 0
    2fa0:	1d c0       	rjmp	.+58     	; 0x2fdc <vfprintf+0x53e>
    2fa2:	09 7f       	andi	r16, 0xF9	; 249
    2fa4:	8f 36       	cpi	r24, 0x6F	; 111
    2fa6:	91 f0       	breq	.+36     	; 0x2fcc <vfprintf+0x52e>
    2fa8:	18 f4       	brcc	.+6      	; 0x2fb0 <vfprintf+0x512>
    2faa:	88 35       	cpi	r24, 0x58	; 88
    2fac:	59 f0       	breq	.+22     	; 0x2fc4 <vfprintf+0x526>
    2fae:	c5 c0       	rjmp	.+394    	; 0x313a <vfprintf+0x69c>
    2fb0:	80 37       	cpi	r24, 0x70	; 112
    2fb2:	19 f0       	breq	.+6      	; 0x2fba <vfprintf+0x51c>
    2fb4:	88 37       	cpi	r24, 0x78	; 120
    2fb6:	11 f0       	breq	.+4      	; 0x2fbc <vfprintf+0x51e>
    2fb8:	c0 c0       	rjmp	.+384    	; 0x313a <vfprintf+0x69c>
    2fba:	00 61       	ori	r16, 0x10	; 16
    2fbc:	04 ff       	sbrs	r16, 4
    2fbe:	09 c0       	rjmp	.+18     	; 0x2fd2 <vfprintf+0x534>
    2fc0:	04 60       	ori	r16, 0x04	; 4
    2fc2:	07 c0       	rjmp	.+14     	; 0x2fd2 <vfprintf+0x534>
    2fc4:	24 ff       	sbrs	r18, 4
    2fc6:	08 c0       	rjmp	.+16     	; 0x2fd8 <vfprintf+0x53a>
    2fc8:	06 60       	ori	r16, 0x06	; 6
    2fca:	06 c0       	rjmp	.+12     	; 0x2fd8 <vfprintf+0x53a>
    2fcc:	28 e0       	ldi	r18, 0x08	; 8
    2fce:	30 e0       	ldi	r19, 0x00	; 0
    2fd0:	05 c0       	rjmp	.+10     	; 0x2fdc <vfprintf+0x53e>
    2fd2:	20 e1       	ldi	r18, 0x10	; 16
    2fd4:	30 e0       	ldi	r19, 0x00	; 0
    2fd6:	02 c0       	rjmp	.+4      	; 0x2fdc <vfprintf+0x53e>
    2fd8:	20 e1       	ldi	r18, 0x10	; 16
    2fda:	32 e0       	ldi	r19, 0x02	; 2
    2fdc:	52 01       	movw	r10, r4
    2fde:	07 ff       	sbrs	r16, 7
    2fe0:	09 c0       	rjmp	.+18     	; 0x2ff4 <vfprintf+0x556>
    2fe2:	f4 e0       	ldi	r31, 0x04	; 4
    2fe4:	af 0e       	add	r10, r31
    2fe6:	b1 1c       	adc	r11, r1
    2fe8:	f2 01       	movw	r30, r4
    2fea:	60 81       	ld	r22, Z
    2fec:	71 81       	ldd	r23, Z+1	; 0x01
    2fee:	82 81       	ldd	r24, Z+2	; 0x02
    2ff0:	93 81       	ldd	r25, Z+3	; 0x03
    2ff2:	08 c0       	rjmp	.+16     	; 0x3004 <vfprintf+0x566>
    2ff4:	f2 e0       	ldi	r31, 0x02	; 2
    2ff6:	af 0e       	add	r10, r31
    2ff8:	b1 1c       	adc	r11, r1
    2ffa:	f2 01       	movw	r30, r4
    2ffc:	60 81       	ld	r22, Z
    2ffe:	71 81       	ldd	r23, Z+1	; 0x01
    3000:	80 e0       	ldi	r24, 0x00	; 0
    3002:	90 e0       	ldi	r25, 0x00	; 0
    3004:	a3 01       	movw	r20, r6
    3006:	0e 94 51 1c 	call	0x38a2	; 0x38a2 <__ultoa_invert>
    300a:	e8 2e       	mov	r14, r24
    300c:	e6 18       	sub	r14, r6
    300e:	0f 77       	andi	r16, 0x7F	; 127
    3010:	30 2e       	mov	r3, r16
    3012:	36 fe       	sbrs	r3, 6
    3014:	0b c0       	rjmp	.+22     	; 0x302c <vfprintf+0x58e>
    3016:	33 2d       	mov	r19, r3
    3018:	3e 7f       	andi	r19, 0xFE	; 254
    301a:	e1 16       	cp	r14, r17
    301c:	50 f4       	brcc	.+20     	; 0x3032 <vfprintf+0x594>
    301e:	34 fe       	sbrs	r3, 4
    3020:	0a c0       	rjmp	.+20     	; 0x3036 <vfprintf+0x598>
    3022:	32 fc       	sbrc	r3, 2
    3024:	08 c0       	rjmp	.+16     	; 0x3036 <vfprintf+0x598>
    3026:	33 2d       	mov	r19, r3
    3028:	3e 7e       	andi	r19, 0xEE	; 238
    302a:	05 c0       	rjmp	.+10     	; 0x3036 <vfprintf+0x598>
    302c:	0e 2d       	mov	r16, r14
    302e:	33 2d       	mov	r19, r3
    3030:	03 c0       	rjmp	.+6      	; 0x3038 <vfprintf+0x59a>
    3032:	0e 2d       	mov	r16, r14
    3034:	01 c0       	rjmp	.+2      	; 0x3038 <vfprintf+0x59a>
    3036:	01 2f       	mov	r16, r17
    3038:	34 ff       	sbrs	r19, 4
    303a:	0c c0       	rjmp	.+24     	; 0x3054 <vfprintf+0x5b6>
    303c:	fe 01       	movw	r30, r28
    303e:	ee 0d       	add	r30, r14
    3040:	f1 1d       	adc	r31, r1
    3042:	80 81       	ld	r24, Z
    3044:	80 33       	cpi	r24, 0x30	; 48
    3046:	11 f4       	brne	.+4      	; 0x304c <vfprintf+0x5ae>
    3048:	39 7e       	andi	r19, 0xE9	; 233
    304a:	08 c0       	rjmp	.+16     	; 0x305c <vfprintf+0x5be>
    304c:	32 ff       	sbrs	r19, 2
    304e:	05 c0       	rjmp	.+10     	; 0x305a <vfprintf+0x5bc>
    3050:	0e 5f       	subi	r16, 0xFE	; 254
    3052:	04 c0       	rjmp	.+8      	; 0x305c <vfprintf+0x5be>
    3054:	83 2f       	mov	r24, r19
    3056:	86 78       	andi	r24, 0x86	; 134
    3058:	09 f0       	breq	.+2      	; 0x305c <vfprintf+0x5be>
    305a:	0f 5f       	subi	r16, 0xFF	; 255
    305c:	33 fd       	sbrc	r19, 3
    305e:	13 c0       	rjmp	.+38     	; 0x3086 <vfprintf+0x5e8>
    3060:	30 ff       	sbrs	r19, 0
    3062:	06 c0       	rjmp	.+12     	; 0x3070 <vfprintf+0x5d2>
    3064:	1e 2d       	mov	r17, r14
    3066:	0f 15       	cp	r16, r15
    3068:	18 f4       	brcc	.+6      	; 0x3070 <vfprintf+0x5d2>
    306a:	1f 0d       	add	r17, r15
    306c:	10 1b       	sub	r17, r16
    306e:	0f 2d       	mov	r16, r15
    3070:	0f 15       	cp	r16, r15
    3072:	68 f4       	brcc	.+26     	; 0x308e <vfprintf+0x5f0>
    3074:	b6 01       	movw	r22, r12
    3076:	80 e2       	ldi	r24, 0x20	; 32
    3078:	90 e0       	ldi	r25, 0x00	; 0
    307a:	3b 8b       	std	Y+19, r19	; 0x13
    307c:	0e 94 f6 1b 	call	0x37ec	; 0x37ec <fputc>
    3080:	0f 5f       	subi	r16, 0xFF	; 255
    3082:	3b 89       	ldd	r19, Y+19	; 0x13
    3084:	f5 cf       	rjmp	.-22     	; 0x3070 <vfprintf+0x5d2>
    3086:	0f 15       	cp	r16, r15
    3088:	10 f4       	brcc	.+4      	; 0x308e <vfprintf+0x5f0>
    308a:	f0 1a       	sub	r15, r16
    308c:	01 c0       	rjmp	.+2      	; 0x3090 <vfprintf+0x5f2>
    308e:	f1 2c       	mov	r15, r1
    3090:	34 ff       	sbrs	r19, 4
    3092:	12 c0       	rjmp	.+36     	; 0x30b8 <vfprintf+0x61a>
    3094:	b6 01       	movw	r22, r12
    3096:	80 e3       	ldi	r24, 0x30	; 48
    3098:	90 e0       	ldi	r25, 0x00	; 0
    309a:	3b 8b       	std	Y+19, r19	; 0x13
    309c:	0e 94 f6 1b 	call	0x37ec	; 0x37ec <fputc>
    30a0:	3b 89       	ldd	r19, Y+19	; 0x13
    30a2:	32 ff       	sbrs	r19, 2
    30a4:	17 c0       	rjmp	.+46     	; 0x30d4 <vfprintf+0x636>
    30a6:	31 fd       	sbrc	r19, 1
    30a8:	03 c0       	rjmp	.+6      	; 0x30b0 <vfprintf+0x612>
    30aa:	88 e7       	ldi	r24, 0x78	; 120
    30ac:	90 e0       	ldi	r25, 0x00	; 0
    30ae:	02 c0       	rjmp	.+4      	; 0x30b4 <vfprintf+0x616>
    30b0:	88 e5       	ldi	r24, 0x58	; 88
    30b2:	90 e0       	ldi	r25, 0x00	; 0
    30b4:	b6 01       	movw	r22, r12
    30b6:	0c c0       	rjmp	.+24     	; 0x30d0 <vfprintf+0x632>
    30b8:	83 2f       	mov	r24, r19
    30ba:	86 78       	andi	r24, 0x86	; 134
    30bc:	59 f0       	breq	.+22     	; 0x30d4 <vfprintf+0x636>
    30be:	31 ff       	sbrs	r19, 1
    30c0:	02 c0       	rjmp	.+4      	; 0x30c6 <vfprintf+0x628>
    30c2:	8b e2       	ldi	r24, 0x2B	; 43
    30c4:	01 c0       	rjmp	.+2      	; 0x30c8 <vfprintf+0x62a>
    30c6:	80 e2       	ldi	r24, 0x20	; 32
    30c8:	37 fd       	sbrc	r19, 7
    30ca:	8d e2       	ldi	r24, 0x2D	; 45
    30cc:	b6 01       	movw	r22, r12
    30ce:	90 e0       	ldi	r25, 0x00	; 0
    30d0:	0e 94 f6 1b 	call	0x37ec	; 0x37ec <fputc>
    30d4:	e1 16       	cp	r14, r17
    30d6:	38 f4       	brcc	.+14     	; 0x30e6 <vfprintf+0x648>
    30d8:	b6 01       	movw	r22, r12
    30da:	80 e3       	ldi	r24, 0x30	; 48
    30dc:	90 e0       	ldi	r25, 0x00	; 0
    30de:	0e 94 f6 1b 	call	0x37ec	; 0x37ec <fputc>
    30e2:	11 50       	subi	r17, 0x01	; 1
    30e4:	f7 cf       	rjmp	.-18     	; 0x30d4 <vfprintf+0x636>
    30e6:	ea 94       	dec	r14
    30e8:	f3 01       	movw	r30, r6
    30ea:	ee 0d       	add	r30, r14
    30ec:	f1 1d       	adc	r31, r1
    30ee:	80 81       	ld	r24, Z
    30f0:	b6 01       	movw	r22, r12
    30f2:	90 e0       	ldi	r25, 0x00	; 0
    30f4:	0e 94 f6 1b 	call	0x37ec	; 0x37ec <fputc>
    30f8:	e1 10       	cpse	r14, r1
    30fa:	f5 cf       	rjmp	.-22     	; 0x30e6 <vfprintf+0x648>
    30fc:	14 c0       	rjmp	.+40     	; 0x3126 <vfprintf+0x688>
    30fe:	f4 e0       	ldi	r31, 0x04	; 4
    3100:	ff 15       	cp	r31, r15
    3102:	58 f5       	brcc	.+86     	; 0x315a <vfprintf+0x6bc>
    3104:	84 e0       	ldi	r24, 0x04	; 4
    3106:	f8 1a       	sub	r15, r24
    3108:	33 fe       	sbrs	r3, 3
    310a:	1e c0       	rjmp	.+60     	; 0x3148 <vfprintf+0x6aa>
    310c:	21 10       	cpse	r2, r1
    310e:	26 c0       	rjmp	.+76     	; 0x315c <vfprintf+0x6be>
    3110:	03 ff       	sbrs	r16, 3
    3112:	2a c0       	rjmp	.+84     	; 0x3168 <vfprintf+0x6ca>
    3114:	02 ed       	ldi	r16, 0xD2	; 210
    3116:	10 e0       	ldi	r17, 0x00	; 0
    3118:	f3 2d       	mov	r31, r3
    311a:	f0 71       	andi	r31, 0x10	; 16
    311c:	3f 2e       	mov	r3, r31
    311e:	f8 01       	movw	r30, r16
    3120:	84 91       	lpm	r24, Z
    3122:	81 11       	cpse	r24, r1
    3124:	24 c0       	rjmp	.+72     	; 0x316e <vfprintf+0x6d0>
    3126:	ff 20       	and	r15, r15
    3128:	09 f4       	brne	.+2      	; 0x312c <vfprintf+0x68e>
    312a:	e5 cc       	rjmp	.-1590   	; 0x2af6 <vfprintf+0x58>
    312c:	b6 01       	movw	r22, r12
    312e:	80 e2       	ldi	r24, 0x20	; 32
    3130:	90 e0       	ldi	r25, 0x00	; 0
    3132:	0e 94 f6 1b 	call	0x37ec	; 0x37ec <fputc>
    3136:	fa 94       	dec	r15
    3138:	f6 cf       	rjmp	.-20     	; 0x3126 <vfprintf+0x688>
    313a:	f6 01       	movw	r30, r12
    313c:	86 81       	ldd	r24, Z+6	; 0x06
    313e:	97 81       	ldd	r25, Z+7	; 0x07
    3140:	26 c0       	rjmp	.+76     	; 0x318e <vfprintf+0x6f0>
    3142:	8f ef       	ldi	r24, 0xFF	; 255
    3144:	9f ef       	ldi	r25, 0xFF	; 255
    3146:	23 c0       	rjmp	.+70     	; 0x318e <vfprintf+0x6f0>
    3148:	b6 01       	movw	r22, r12
    314a:	80 e2       	ldi	r24, 0x20	; 32
    314c:	90 e0       	ldi	r25, 0x00	; 0
    314e:	0e 94 f6 1b 	call	0x37ec	; 0x37ec <fputc>
    3152:	fa 94       	dec	r15
    3154:	f1 10       	cpse	r15, r1
    3156:	f8 cf       	rjmp	.-16     	; 0x3148 <vfprintf+0x6aa>
    3158:	d9 cf       	rjmp	.-78     	; 0x310c <vfprintf+0x66e>
    315a:	f1 2c       	mov	r15, r1
    315c:	b6 01       	movw	r22, r12
    315e:	82 2d       	mov	r24, r2
    3160:	90 e0       	ldi	r25, 0x00	; 0
    3162:	0e 94 f6 1b 	call	0x37ec	; 0x37ec <fputc>
    3166:	d4 cf       	rjmp	.-88     	; 0x3110 <vfprintf+0x672>
    3168:	06 ed       	ldi	r16, 0xD6	; 214
    316a:	10 e0       	ldi	r17, 0x00	; 0
    316c:	d5 cf       	rjmp	.-86     	; 0x3118 <vfprintf+0x67a>
    316e:	31 10       	cpse	r3, r1
    3170:	80 52       	subi	r24, 0x20	; 32
    3172:	b6 01       	movw	r22, r12
    3174:	90 e0       	ldi	r25, 0x00	; 0
    3176:	0e 94 f6 1b 	call	0x37ec	; 0x37ec <fputc>
    317a:	0f 5f       	subi	r16, 0xFF	; 255
    317c:	1f 4f       	sbci	r17, 0xFF	; 255
    317e:	cf cf       	rjmp	.-98     	; 0x311e <vfprintf+0x680>
    3180:	23 e0       	ldi	r18, 0x03	; 3
    3182:	2f 15       	cp	r18, r15
    3184:	10 f4       	brcc	.+4      	; 0x318a <vfprintf+0x6ec>
    3186:	83 e0       	ldi	r24, 0x03	; 3
    3188:	be cf       	rjmp	.-132    	; 0x3106 <vfprintf+0x668>
    318a:	f1 2c       	mov	r15, r1
    318c:	c1 cf       	rjmp	.-126    	; 0x3110 <vfprintf+0x672>
    318e:	63 96       	adiw	r28, 0x13	; 19
    3190:	e2 e1       	ldi	r30, 0x12	; 18
    3192:	0c 94 54 19 	jmp	0x32a8	; 0x32a8 <__epilogue_restores__>

00003196 <__udivmodhi4>:
    3196:	aa 1b       	sub	r26, r26
    3198:	bb 1b       	sub	r27, r27
    319a:	51 e1       	ldi	r21, 0x11	; 17
    319c:	07 c0       	rjmp	.+14     	; 0x31ac <__udivmodhi4_ep>

0000319e <__udivmodhi4_loop>:
    319e:	aa 1f       	adc	r26, r26
    31a0:	bb 1f       	adc	r27, r27
    31a2:	a6 17       	cp	r26, r22
    31a4:	b7 07       	cpc	r27, r23
    31a6:	10 f0       	brcs	.+4      	; 0x31ac <__udivmodhi4_ep>
    31a8:	a6 1b       	sub	r26, r22
    31aa:	b7 0b       	sbc	r27, r23

000031ac <__udivmodhi4_ep>:
    31ac:	88 1f       	adc	r24, r24
    31ae:	99 1f       	adc	r25, r25
    31b0:	5a 95       	dec	r21
    31b2:	a9 f7       	brne	.-22     	; 0x319e <__udivmodhi4_loop>
    31b4:	80 95       	com	r24
    31b6:	90 95       	com	r25
    31b8:	bc 01       	movw	r22, r24
    31ba:	cd 01       	movw	r24, r26
    31bc:	08 95       	ret

000031be <__udivmodsi4>:
    31be:	a1 e2       	ldi	r26, 0x21	; 33
    31c0:	1a 2e       	mov	r1, r26
    31c2:	aa 1b       	sub	r26, r26
    31c4:	bb 1b       	sub	r27, r27
    31c6:	fd 01       	movw	r30, r26
    31c8:	0d c0       	rjmp	.+26     	; 0x31e4 <__udivmodsi4_ep>

000031ca <__udivmodsi4_loop>:
    31ca:	aa 1f       	adc	r26, r26
    31cc:	bb 1f       	adc	r27, r27
    31ce:	ee 1f       	adc	r30, r30
    31d0:	ff 1f       	adc	r31, r31
    31d2:	a2 17       	cp	r26, r18
    31d4:	b3 07       	cpc	r27, r19
    31d6:	e4 07       	cpc	r30, r20
    31d8:	f5 07       	cpc	r31, r21
    31da:	20 f0       	brcs	.+8      	; 0x31e4 <__udivmodsi4_ep>
    31dc:	a2 1b       	sub	r26, r18
    31de:	b3 0b       	sbc	r27, r19
    31e0:	e4 0b       	sbc	r30, r20
    31e2:	f5 0b       	sbc	r31, r21

000031e4 <__udivmodsi4_ep>:
    31e4:	66 1f       	adc	r22, r22
    31e6:	77 1f       	adc	r23, r23
    31e8:	88 1f       	adc	r24, r24
    31ea:	99 1f       	adc	r25, r25
    31ec:	1a 94       	dec	r1
    31ee:	69 f7       	brne	.-38     	; 0x31ca <__udivmodsi4_loop>
    31f0:	60 95       	com	r22
    31f2:	70 95       	com	r23
    31f4:	80 95       	com	r24
    31f6:	90 95       	com	r25
    31f8:	9b 01       	movw	r18, r22
    31fa:	ac 01       	movw	r20, r24
    31fc:	bd 01       	movw	r22, r26
    31fe:	cf 01       	movw	r24, r30
    3200:	08 95       	ret

00003202 <__divmodsi4>:
    3202:	05 2e       	mov	r0, r21
    3204:	97 fb       	bst	r25, 7
    3206:	1e f4       	brtc	.+6      	; 0x320e <__divmodsi4+0xc>
    3208:	00 94       	com	r0
    320a:	0e 94 18 19 	call	0x3230	; 0x3230 <__negsi2>
    320e:	57 fd       	sbrc	r21, 7
    3210:	07 d0       	rcall	.+14     	; 0x3220 <__divmodsi4_neg2>
    3212:	0e 94 df 18 	call	0x31be	; 0x31be <__udivmodsi4>
    3216:	07 fc       	sbrc	r0, 7
    3218:	03 d0       	rcall	.+6      	; 0x3220 <__divmodsi4_neg2>
    321a:	4e f4       	brtc	.+18     	; 0x322e <__divmodsi4_exit>
    321c:	0c 94 18 19 	jmp	0x3230	; 0x3230 <__negsi2>

00003220 <__divmodsi4_neg2>:
    3220:	50 95       	com	r21
    3222:	40 95       	com	r20
    3224:	30 95       	com	r19
    3226:	21 95       	neg	r18
    3228:	3f 4f       	sbci	r19, 0xFF	; 255
    322a:	4f 4f       	sbci	r20, 0xFF	; 255
    322c:	5f 4f       	sbci	r21, 0xFF	; 255

0000322e <__divmodsi4_exit>:
    322e:	08 95       	ret

00003230 <__negsi2>:
    3230:	90 95       	com	r25
    3232:	80 95       	com	r24
    3234:	70 95       	com	r23
    3236:	61 95       	neg	r22
    3238:	7f 4f       	sbci	r23, 0xFF	; 255
    323a:	8f 4f       	sbci	r24, 0xFF	; 255
    323c:	9f 4f       	sbci	r25, 0xFF	; 255
    323e:	08 95       	ret

00003240 <__tablejump2__>:
    3240:	ee 0f       	add	r30, r30
    3242:	ff 1f       	adc	r31, r31
    3244:	05 90       	lpm	r0, Z+
    3246:	f4 91       	lpm	r31, Z
    3248:	e0 2d       	mov	r30, r0
    324a:	09 94       	ijmp

0000324c <__usmulhisi3>:
    324c:	0e 94 6f 19 	call	0x32de	; 0x32de <__umulhisi3>

00003250 <__usmulhisi3_tail>:
    3250:	b7 ff       	sbrs	r27, 7
    3252:	08 95       	ret
    3254:	82 1b       	sub	r24, r18
    3256:	93 0b       	sbc	r25, r19
    3258:	08 95       	ret

0000325a <__muluhisi3>:
    325a:	0e 94 6f 19 	call	0x32de	; 0x32de <__umulhisi3>
    325e:	a5 9f       	mul	r26, r21
    3260:	90 0d       	add	r25, r0
    3262:	b4 9f       	mul	r27, r20
    3264:	90 0d       	add	r25, r0
    3266:	a4 9f       	mul	r26, r20
    3268:	80 0d       	add	r24, r0
    326a:	91 1d       	adc	r25, r1
    326c:	11 24       	eor	r1, r1
    326e:	08 95       	ret

00003270 <__prologue_saves__>:
    3270:	2f 92       	push	r2
    3272:	3f 92       	push	r3
    3274:	4f 92       	push	r4
    3276:	5f 92       	push	r5
    3278:	6f 92       	push	r6
    327a:	7f 92       	push	r7
    327c:	8f 92       	push	r8
    327e:	9f 92       	push	r9
    3280:	af 92       	push	r10
    3282:	bf 92       	push	r11
    3284:	cf 92       	push	r12
    3286:	df 92       	push	r13
    3288:	ef 92       	push	r14
    328a:	ff 92       	push	r15
    328c:	0f 93       	push	r16
    328e:	1f 93       	push	r17
    3290:	cf 93       	push	r28
    3292:	df 93       	push	r29
    3294:	cd b7       	in	r28, 0x3d	; 61
    3296:	de b7       	in	r29, 0x3e	; 62
    3298:	ca 1b       	sub	r28, r26
    329a:	db 0b       	sbc	r29, r27
    329c:	0f b6       	in	r0, 0x3f	; 63
    329e:	f8 94       	cli
    32a0:	de bf       	out	0x3e, r29	; 62
    32a2:	0f be       	out	0x3f, r0	; 63
    32a4:	cd bf       	out	0x3d, r28	; 61
    32a6:	09 94       	ijmp

000032a8 <__epilogue_restores__>:
    32a8:	2a 88       	ldd	r2, Y+18	; 0x12
    32aa:	39 88       	ldd	r3, Y+17	; 0x11
    32ac:	48 88       	ldd	r4, Y+16	; 0x10
    32ae:	5f 84       	ldd	r5, Y+15	; 0x0f
    32b0:	6e 84       	ldd	r6, Y+14	; 0x0e
    32b2:	7d 84       	ldd	r7, Y+13	; 0x0d
    32b4:	8c 84       	ldd	r8, Y+12	; 0x0c
    32b6:	9b 84       	ldd	r9, Y+11	; 0x0b
    32b8:	aa 84       	ldd	r10, Y+10	; 0x0a
    32ba:	b9 84       	ldd	r11, Y+9	; 0x09
    32bc:	c8 84       	ldd	r12, Y+8	; 0x08
    32be:	df 80       	ldd	r13, Y+7	; 0x07
    32c0:	ee 80       	ldd	r14, Y+6	; 0x06
    32c2:	fd 80       	ldd	r15, Y+5	; 0x05
    32c4:	0c 81       	ldd	r16, Y+4	; 0x04
    32c6:	1b 81       	ldd	r17, Y+3	; 0x03
    32c8:	aa 81       	ldd	r26, Y+2	; 0x02
    32ca:	b9 81       	ldd	r27, Y+1	; 0x01
    32cc:	ce 0f       	add	r28, r30
    32ce:	d1 1d       	adc	r29, r1
    32d0:	0f b6       	in	r0, 0x3f	; 63
    32d2:	f8 94       	cli
    32d4:	de bf       	out	0x3e, r29	; 62
    32d6:	0f be       	out	0x3f, r0	; 63
    32d8:	cd bf       	out	0x3d, r28	; 61
    32da:	ed 01       	movw	r28, r26
    32dc:	08 95       	ret

000032de <__umulhisi3>:
    32de:	a2 9f       	mul	r26, r18
    32e0:	b0 01       	movw	r22, r0
    32e2:	b3 9f       	mul	r27, r19
    32e4:	c0 01       	movw	r24, r0
    32e6:	a3 9f       	mul	r26, r19
    32e8:	70 0d       	add	r23, r0
    32ea:	81 1d       	adc	r24, r1
    32ec:	11 24       	eor	r1, r1
    32ee:	91 1d       	adc	r25, r1
    32f0:	b2 9f       	mul	r27, r18
    32f2:	70 0d       	add	r23, r0
    32f4:	81 1d       	adc	r24, r1
    32f6:	11 24       	eor	r1, r1
    32f8:	91 1d       	adc	r25, r1
    32fa:	08 95       	ret

000032fc <malloc>:
    32fc:	cf 93       	push	r28
    32fe:	df 93       	push	r29
    3300:	82 30       	cpi	r24, 0x02	; 2
    3302:	91 05       	cpc	r25, r1
    3304:	10 f4       	brcc	.+4      	; 0x330a <malloc+0xe>
    3306:	82 e0       	ldi	r24, 0x02	; 2
    3308:	90 e0       	ldi	r25, 0x00	; 0
    330a:	e0 91 49 04 	lds	r30, 0x0449
    330e:	f0 91 4a 04 	lds	r31, 0x044A
    3312:	20 e0       	ldi	r18, 0x00	; 0
    3314:	30 e0       	ldi	r19, 0x00	; 0
    3316:	c0 e0       	ldi	r28, 0x00	; 0
    3318:	d0 e0       	ldi	r29, 0x00	; 0
    331a:	30 97       	sbiw	r30, 0x00	; 0
    331c:	11 f1       	breq	.+68     	; 0x3362 <malloc+0x66>
    331e:	40 81       	ld	r20, Z
    3320:	51 81       	ldd	r21, Z+1	; 0x01
    3322:	48 17       	cp	r20, r24
    3324:	59 07       	cpc	r21, r25
    3326:	c0 f0       	brcs	.+48     	; 0x3358 <malloc+0x5c>
    3328:	48 17       	cp	r20, r24
    332a:	59 07       	cpc	r21, r25
    332c:	61 f4       	brne	.+24     	; 0x3346 <malloc+0x4a>
    332e:	82 81       	ldd	r24, Z+2	; 0x02
    3330:	93 81       	ldd	r25, Z+3	; 0x03
    3332:	20 97       	sbiw	r28, 0x00	; 0
    3334:	19 f0       	breq	.+6      	; 0x333c <malloc+0x40>
    3336:	9b 83       	std	Y+3, r25	; 0x03
    3338:	8a 83       	std	Y+2, r24	; 0x02
    333a:	2b c0       	rjmp	.+86     	; 0x3392 <malloc+0x96>
    333c:	90 93 4a 04 	sts	0x044A, r25
    3340:	80 93 49 04 	sts	0x0449, r24
    3344:	26 c0       	rjmp	.+76     	; 0x3392 <malloc+0x96>
    3346:	21 15       	cp	r18, r1
    3348:	31 05       	cpc	r19, r1
    334a:	19 f0       	breq	.+6      	; 0x3352 <malloc+0x56>
    334c:	42 17       	cp	r20, r18
    334e:	53 07       	cpc	r21, r19
    3350:	18 f4       	brcc	.+6      	; 0x3358 <malloc+0x5c>
    3352:	9a 01       	movw	r18, r20
    3354:	be 01       	movw	r22, r28
    3356:	df 01       	movw	r26, r30
    3358:	ef 01       	movw	r28, r30
    335a:	02 80       	ldd	r0, Z+2	; 0x02
    335c:	f3 81       	ldd	r31, Z+3	; 0x03
    335e:	e0 2d       	mov	r30, r0
    3360:	dc cf       	rjmp	.-72     	; 0x331a <malloc+0x1e>
    3362:	21 15       	cp	r18, r1
    3364:	31 05       	cpc	r19, r1
    3366:	09 f1       	breq	.+66     	; 0x33aa <malloc+0xae>
    3368:	28 1b       	sub	r18, r24
    336a:	39 0b       	sbc	r19, r25
    336c:	24 30       	cpi	r18, 0x04	; 4
    336e:	31 05       	cpc	r19, r1
    3370:	90 f4       	brcc	.+36     	; 0x3396 <malloc+0x9a>
    3372:	12 96       	adiw	r26, 0x02	; 2
    3374:	8d 91       	ld	r24, X+
    3376:	9c 91       	ld	r25, X
    3378:	13 97       	sbiw	r26, 0x03	; 3
    337a:	61 15       	cp	r22, r1
    337c:	71 05       	cpc	r23, r1
    337e:	21 f0       	breq	.+8      	; 0x3388 <malloc+0x8c>
    3380:	fb 01       	movw	r30, r22
    3382:	93 83       	std	Z+3, r25	; 0x03
    3384:	82 83       	std	Z+2, r24	; 0x02
    3386:	04 c0       	rjmp	.+8      	; 0x3390 <malloc+0x94>
    3388:	90 93 4a 04 	sts	0x044A, r25
    338c:	80 93 49 04 	sts	0x0449, r24
    3390:	fd 01       	movw	r30, r26
    3392:	32 96       	adiw	r30, 0x02	; 2
    3394:	44 c0       	rjmp	.+136    	; 0x341e <malloc+0x122>
    3396:	fd 01       	movw	r30, r26
    3398:	e2 0f       	add	r30, r18
    339a:	f3 1f       	adc	r31, r19
    339c:	81 93       	st	Z+, r24
    339e:	91 93       	st	Z+, r25
    33a0:	22 50       	subi	r18, 0x02	; 2
    33a2:	31 09       	sbc	r19, r1
    33a4:	2d 93       	st	X+, r18
    33a6:	3c 93       	st	X, r19
    33a8:	3a c0       	rjmp	.+116    	; 0x341e <malloc+0x122>
    33aa:	20 91 47 04 	lds	r18, 0x0447
    33ae:	30 91 48 04 	lds	r19, 0x0448
    33b2:	23 2b       	or	r18, r19
    33b4:	41 f4       	brne	.+16     	; 0x33c6 <malloc+0xca>
    33b6:	20 91 02 01 	lds	r18, 0x0102
    33ba:	30 91 03 01 	lds	r19, 0x0103
    33be:	30 93 48 04 	sts	0x0448, r19
    33c2:	20 93 47 04 	sts	0x0447, r18
    33c6:	20 91 00 01 	lds	r18, 0x0100
    33ca:	30 91 01 01 	lds	r19, 0x0101
    33ce:	21 15       	cp	r18, r1
    33d0:	31 05       	cpc	r19, r1
    33d2:	41 f4       	brne	.+16     	; 0x33e4 <malloc+0xe8>
    33d4:	2d b7       	in	r18, 0x3d	; 61
    33d6:	3e b7       	in	r19, 0x3e	; 62
    33d8:	40 91 04 01 	lds	r20, 0x0104
    33dc:	50 91 05 01 	lds	r21, 0x0105
    33e0:	24 1b       	sub	r18, r20
    33e2:	35 0b       	sbc	r19, r21
    33e4:	e0 91 47 04 	lds	r30, 0x0447
    33e8:	f0 91 48 04 	lds	r31, 0x0448
    33ec:	e2 17       	cp	r30, r18
    33ee:	f3 07       	cpc	r31, r19
    33f0:	a0 f4       	brcc	.+40     	; 0x341a <malloc+0x11e>
    33f2:	2e 1b       	sub	r18, r30
    33f4:	3f 0b       	sbc	r19, r31
    33f6:	28 17       	cp	r18, r24
    33f8:	39 07       	cpc	r19, r25
    33fa:	78 f0       	brcs	.+30     	; 0x341a <malloc+0x11e>
    33fc:	ac 01       	movw	r20, r24
    33fe:	4e 5f       	subi	r20, 0xFE	; 254
    3400:	5f 4f       	sbci	r21, 0xFF	; 255
    3402:	24 17       	cp	r18, r20
    3404:	35 07       	cpc	r19, r21
    3406:	48 f0       	brcs	.+18     	; 0x341a <malloc+0x11e>
    3408:	4e 0f       	add	r20, r30
    340a:	5f 1f       	adc	r21, r31
    340c:	50 93 48 04 	sts	0x0448, r21
    3410:	40 93 47 04 	sts	0x0447, r20
    3414:	81 93       	st	Z+, r24
    3416:	91 93       	st	Z+, r25
    3418:	02 c0       	rjmp	.+4      	; 0x341e <malloc+0x122>
    341a:	e0 e0       	ldi	r30, 0x00	; 0
    341c:	f0 e0       	ldi	r31, 0x00	; 0
    341e:	cf 01       	movw	r24, r30
    3420:	df 91       	pop	r29
    3422:	cf 91       	pop	r28
    3424:	08 95       	ret

00003426 <free>:
    3426:	0f 93       	push	r16
    3428:	1f 93       	push	r17
    342a:	cf 93       	push	r28
    342c:	df 93       	push	r29
    342e:	00 97       	sbiw	r24, 0x00	; 0
    3430:	09 f4       	brne	.+2      	; 0x3434 <free+0xe>
    3432:	8c c0       	rjmp	.+280    	; 0x354c <free+0x126>
    3434:	fc 01       	movw	r30, r24
    3436:	32 97       	sbiw	r30, 0x02	; 2
    3438:	13 82       	std	Z+3, r1	; 0x03
    343a:	12 82       	std	Z+2, r1	; 0x02
    343c:	00 91 49 04 	lds	r16, 0x0449
    3440:	10 91 4a 04 	lds	r17, 0x044A
    3444:	01 15       	cp	r16, r1
    3446:	11 05       	cpc	r17, r1
    3448:	81 f4       	brne	.+32     	; 0x346a <free+0x44>
    344a:	20 81       	ld	r18, Z
    344c:	31 81       	ldd	r19, Z+1	; 0x01
    344e:	82 0f       	add	r24, r18
    3450:	93 1f       	adc	r25, r19
    3452:	20 91 47 04 	lds	r18, 0x0447
    3456:	30 91 48 04 	lds	r19, 0x0448
    345a:	28 17       	cp	r18, r24
    345c:	39 07       	cpc	r19, r25
    345e:	79 f5       	brne	.+94     	; 0x34be <free+0x98>
    3460:	f0 93 48 04 	sts	0x0448, r31
    3464:	e0 93 47 04 	sts	0x0447, r30
    3468:	71 c0       	rjmp	.+226    	; 0x354c <free+0x126>
    346a:	d8 01       	movw	r26, r16
    346c:	40 e0       	ldi	r20, 0x00	; 0
    346e:	50 e0       	ldi	r21, 0x00	; 0
    3470:	ae 17       	cp	r26, r30
    3472:	bf 07       	cpc	r27, r31
    3474:	50 f4       	brcc	.+20     	; 0x348a <free+0x64>
    3476:	12 96       	adiw	r26, 0x02	; 2
    3478:	2d 91       	ld	r18, X+
    347a:	3c 91       	ld	r19, X
    347c:	13 97       	sbiw	r26, 0x03	; 3
    347e:	ad 01       	movw	r20, r26
    3480:	21 15       	cp	r18, r1
    3482:	31 05       	cpc	r19, r1
    3484:	09 f1       	breq	.+66     	; 0x34c8 <free+0xa2>
    3486:	d9 01       	movw	r26, r18
    3488:	f3 cf       	rjmp	.-26     	; 0x3470 <free+0x4a>
    348a:	9d 01       	movw	r18, r26
    348c:	da 01       	movw	r26, r20
    348e:	33 83       	std	Z+3, r19	; 0x03
    3490:	22 83       	std	Z+2, r18	; 0x02
    3492:	60 81       	ld	r22, Z
    3494:	71 81       	ldd	r23, Z+1	; 0x01
    3496:	86 0f       	add	r24, r22
    3498:	97 1f       	adc	r25, r23
    349a:	82 17       	cp	r24, r18
    349c:	93 07       	cpc	r25, r19
    349e:	69 f4       	brne	.+26     	; 0x34ba <free+0x94>
    34a0:	ec 01       	movw	r28, r24
    34a2:	28 81       	ld	r18, Y
    34a4:	39 81       	ldd	r19, Y+1	; 0x01
    34a6:	26 0f       	add	r18, r22
    34a8:	37 1f       	adc	r19, r23
    34aa:	2e 5f       	subi	r18, 0xFE	; 254
    34ac:	3f 4f       	sbci	r19, 0xFF	; 255
    34ae:	31 83       	std	Z+1, r19	; 0x01
    34b0:	20 83       	st	Z, r18
    34b2:	8a 81       	ldd	r24, Y+2	; 0x02
    34b4:	9b 81       	ldd	r25, Y+3	; 0x03
    34b6:	93 83       	std	Z+3, r25	; 0x03
    34b8:	82 83       	std	Z+2, r24	; 0x02
    34ba:	45 2b       	or	r20, r21
    34bc:	29 f4       	brne	.+10     	; 0x34c8 <free+0xa2>
    34be:	f0 93 4a 04 	sts	0x044A, r31
    34c2:	e0 93 49 04 	sts	0x0449, r30
    34c6:	42 c0       	rjmp	.+132    	; 0x354c <free+0x126>
    34c8:	13 96       	adiw	r26, 0x03	; 3
    34ca:	fc 93       	st	X, r31
    34cc:	ee 93       	st	-X, r30
    34ce:	12 97       	sbiw	r26, 0x02	; 2
    34d0:	ed 01       	movw	r28, r26
    34d2:	49 91       	ld	r20, Y+
    34d4:	59 91       	ld	r21, Y+
    34d6:	9e 01       	movw	r18, r28
    34d8:	24 0f       	add	r18, r20
    34da:	35 1f       	adc	r19, r21
    34dc:	e2 17       	cp	r30, r18
    34de:	f3 07       	cpc	r31, r19
    34e0:	71 f4       	brne	.+28     	; 0x34fe <free+0xd8>
    34e2:	80 81       	ld	r24, Z
    34e4:	91 81       	ldd	r25, Z+1	; 0x01
    34e6:	84 0f       	add	r24, r20
    34e8:	95 1f       	adc	r25, r21
    34ea:	02 96       	adiw	r24, 0x02	; 2
    34ec:	11 96       	adiw	r26, 0x01	; 1
    34ee:	9c 93       	st	X, r25
    34f0:	8e 93       	st	-X, r24
    34f2:	82 81       	ldd	r24, Z+2	; 0x02
    34f4:	93 81       	ldd	r25, Z+3	; 0x03
    34f6:	13 96       	adiw	r26, 0x03	; 3
    34f8:	9c 93       	st	X, r25
    34fa:	8e 93       	st	-X, r24
    34fc:	12 97       	sbiw	r26, 0x02	; 2
    34fe:	e0 e0       	ldi	r30, 0x00	; 0
    3500:	f0 e0       	ldi	r31, 0x00	; 0
    3502:	d8 01       	movw	r26, r16
    3504:	12 96       	adiw	r26, 0x02	; 2
    3506:	8d 91       	ld	r24, X+
    3508:	9c 91       	ld	r25, X
    350a:	13 97       	sbiw	r26, 0x03	; 3
    350c:	00 97       	sbiw	r24, 0x00	; 0
    350e:	19 f0       	breq	.+6      	; 0x3516 <free+0xf0>
    3510:	f8 01       	movw	r30, r16
    3512:	8c 01       	movw	r16, r24
    3514:	f6 cf       	rjmp	.-20     	; 0x3502 <free+0xdc>
    3516:	8d 91       	ld	r24, X+
    3518:	9c 91       	ld	r25, X
    351a:	98 01       	movw	r18, r16
    351c:	2e 5f       	subi	r18, 0xFE	; 254
    351e:	3f 4f       	sbci	r19, 0xFF	; 255
    3520:	82 0f       	add	r24, r18
    3522:	93 1f       	adc	r25, r19
    3524:	20 91 47 04 	lds	r18, 0x0447
    3528:	30 91 48 04 	lds	r19, 0x0448
    352c:	28 17       	cp	r18, r24
    352e:	39 07       	cpc	r19, r25
    3530:	69 f4       	brne	.+26     	; 0x354c <free+0x126>
    3532:	30 97       	sbiw	r30, 0x00	; 0
    3534:	29 f4       	brne	.+10     	; 0x3540 <free+0x11a>
    3536:	10 92 4a 04 	sts	0x044A, r1
    353a:	10 92 49 04 	sts	0x0449, r1
    353e:	02 c0       	rjmp	.+4      	; 0x3544 <free+0x11e>
    3540:	13 82       	std	Z+3, r1	; 0x03
    3542:	12 82       	std	Z+2, r1	; 0x02
    3544:	10 93 48 04 	sts	0x0448, r17
    3548:	00 93 47 04 	sts	0x0447, r16
    354c:	df 91       	pop	r29
    354e:	cf 91       	pop	r28
    3550:	1f 91       	pop	r17
    3552:	0f 91       	pop	r16
    3554:	08 95       	ret

00003556 <__ftoa_engine>:
    3556:	28 30       	cpi	r18, 0x08	; 8
    3558:	08 f0       	brcs	.+2      	; 0x355c <__ftoa_engine+0x6>
    355a:	27 e0       	ldi	r18, 0x07	; 7
    355c:	33 27       	eor	r19, r19
    355e:	da 01       	movw	r26, r20
    3560:	99 0f       	add	r25, r25
    3562:	31 1d       	adc	r19, r1
    3564:	87 fd       	sbrc	r24, 7
    3566:	91 60       	ori	r25, 0x01	; 1
    3568:	00 96       	adiw	r24, 0x00	; 0
    356a:	61 05       	cpc	r22, r1
    356c:	71 05       	cpc	r23, r1
    356e:	39 f4       	brne	.+14     	; 0x357e <__ftoa_engine+0x28>
    3570:	32 60       	ori	r19, 0x02	; 2
    3572:	2e 5f       	subi	r18, 0xFE	; 254
    3574:	3d 93       	st	X+, r19
    3576:	30 e3       	ldi	r19, 0x30	; 48
    3578:	2a 95       	dec	r18
    357a:	e1 f7       	brne	.-8      	; 0x3574 <__ftoa_engine+0x1e>
    357c:	08 95       	ret
    357e:	9f 3f       	cpi	r25, 0xFF	; 255
    3580:	30 f0       	brcs	.+12     	; 0x358e <__ftoa_engine+0x38>
    3582:	80 38       	cpi	r24, 0x80	; 128
    3584:	71 05       	cpc	r23, r1
    3586:	61 05       	cpc	r22, r1
    3588:	09 f0       	breq	.+2      	; 0x358c <__ftoa_engine+0x36>
    358a:	3c 5f       	subi	r19, 0xFC	; 252
    358c:	3c 5f       	subi	r19, 0xFC	; 252
    358e:	3d 93       	st	X+, r19
    3590:	91 30       	cpi	r25, 0x01	; 1
    3592:	08 f0       	brcs	.+2      	; 0x3596 <__ftoa_engine+0x40>
    3594:	80 68       	ori	r24, 0x80	; 128
    3596:	91 1d       	adc	r25, r1
    3598:	df 93       	push	r29
    359a:	cf 93       	push	r28
    359c:	1f 93       	push	r17
    359e:	0f 93       	push	r16
    35a0:	ff 92       	push	r15
    35a2:	ef 92       	push	r14
    35a4:	19 2f       	mov	r17, r25
    35a6:	98 7f       	andi	r25, 0xF8	; 248
    35a8:	96 95       	lsr	r25
    35aa:	e9 2f       	mov	r30, r25
    35ac:	96 95       	lsr	r25
    35ae:	96 95       	lsr	r25
    35b0:	e9 0f       	add	r30, r25
    35b2:	ff 27       	eor	r31, r31
    35b4:	ec 5c       	subi	r30, 0xCC	; 204
    35b6:	fe 4f       	sbci	r31, 0xFE	; 254
    35b8:	99 27       	eor	r25, r25
    35ba:	33 27       	eor	r19, r19
    35bc:	ee 24       	eor	r14, r14
    35be:	ff 24       	eor	r15, r15
    35c0:	a7 01       	movw	r20, r14
    35c2:	e7 01       	movw	r28, r14
    35c4:	05 90       	lpm	r0, Z+
    35c6:	08 94       	sec
    35c8:	07 94       	ror	r0
    35ca:	28 f4       	brcc	.+10     	; 0x35d6 <__ftoa_engine+0x80>
    35cc:	36 0f       	add	r19, r22
    35ce:	e7 1e       	adc	r14, r23
    35d0:	f8 1e       	adc	r15, r24
    35d2:	49 1f       	adc	r20, r25
    35d4:	51 1d       	adc	r21, r1
    35d6:	66 0f       	add	r22, r22
    35d8:	77 1f       	adc	r23, r23
    35da:	88 1f       	adc	r24, r24
    35dc:	99 1f       	adc	r25, r25
    35de:	06 94       	lsr	r0
    35e0:	a1 f7       	brne	.-24     	; 0x35ca <__ftoa_engine+0x74>
    35e2:	05 90       	lpm	r0, Z+
    35e4:	07 94       	ror	r0
    35e6:	28 f4       	brcc	.+10     	; 0x35f2 <__ftoa_engine+0x9c>
    35e8:	e7 0e       	add	r14, r23
    35ea:	f8 1e       	adc	r15, r24
    35ec:	49 1f       	adc	r20, r25
    35ee:	56 1f       	adc	r21, r22
    35f0:	c1 1d       	adc	r28, r1
    35f2:	77 0f       	add	r23, r23
    35f4:	88 1f       	adc	r24, r24
    35f6:	99 1f       	adc	r25, r25
    35f8:	66 1f       	adc	r22, r22
    35fa:	06 94       	lsr	r0
    35fc:	a1 f7       	brne	.-24     	; 0x35e6 <__ftoa_engine+0x90>
    35fe:	05 90       	lpm	r0, Z+
    3600:	07 94       	ror	r0
    3602:	28 f4       	brcc	.+10     	; 0x360e <__ftoa_engine+0xb8>
    3604:	f8 0e       	add	r15, r24
    3606:	49 1f       	adc	r20, r25
    3608:	56 1f       	adc	r21, r22
    360a:	c7 1f       	adc	r28, r23
    360c:	d1 1d       	adc	r29, r1
    360e:	88 0f       	add	r24, r24
    3610:	99 1f       	adc	r25, r25
    3612:	66 1f       	adc	r22, r22
    3614:	77 1f       	adc	r23, r23
    3616:	06 94       	lsr	r0
    3618:	a1 f7       	brne	.-24     	; 0x3602 <__ftoa_engine+0xac>
    361a:	05 90       	lpm	r0, Z+
    361c:	07 94       	ror	r0
    361e:	20 f4       	brcc	.+8      	; 0x3628 <__ftoa_engine+0xd2>
    3620:	49 0f       	add	r20, r25
    3622:	56 1f       	adc	r21, r22
    3624:	c7 1f       	adc	r28, r23
    3626:	d8 1f       	adc	r29, r24
    3628:	99 0f       	add	r25, r25
    362a:	66 1f       	adc	r22, r22
    362c:	77 1f       	adc	r23, r23
    362e:	88 1f       	adc	r24, r24
    3630:	06 94       	lsr	r0
    3632:	a9 f7       	brne	.-22     	; 0x361e <__ftoa_engine+0xc8>
    3634:	84 91       	lpm	r24, Z
    3636:	10 95       	com	r17
    3638:	17 70       	andi	r17, 0x07	; 7
    363a:	41 f0       	breq	.+16     	; 0x364c <__ftoa_engine+0xf6>
    363c:	d6 95       	lsr	r29
    363e:	c7 95       	ror	r28
    3640:	57 95       	ror	r21
    3642:	47 95       	ror	r20
    3644:	f7 94       	ror	r15
    3646:	e7 94       	ror	r14
    3648:	1a 95       	dec	r17
    364a:	c1 f7       	brne	.-16     	; 0x363c <__ftoa_engine+0xe6>
    364c:	ea ed       	ldi	r30, 0xDA	; 218
    364e:	f0 e0       	ldi	r31, 0x00	; 0
    3650:	68 94       	set
    3652:	15 90       	lpm	r1, Z+
    3654:	15 91       	lpm	r17, Z+
    3656:	35 91       	lpm	r19, Z+
    3658:	65 91       	lpm	r22, Z+
    365a:	95 91       	lpm	r25, Z+
    365c:	05 90       	lpm	r0, Z+
    365e:	7f e2       	ldi	r23, 0x2F	; 47
    3660:	73 95       	inc	r23
    3662:	e1 18       	sub	r14, r1
    3664:	f1 0a       	sbc	r15, r17
    3666:	43 0b       	sbc	r20, r19
    3668:	56 0b       	sbc	r21, r22
    366a:	c9 0b       	sbc	r28, r25
    366c:	d0 09       	sbc	r29, r0
    366e:	c0 f7       	brcc	.-16     	; 0x3660 <__ftoa_engine+0x10a>
    3670:	e1 0c       	add	r14, r1
    3672:	f1 1e       	adc	r15, r17
    3674:	43 1f       	adc	r20, r19
    3676:	56 1f       	adc	r21, r22
    3678:	c9 1f       	adc	r28, r25
    367a:	d0 1d       	adc	r29, r0
    367c:	7e f4       	brtc	.+30     	; 0x369c <__ftoa_engine+0x146>
    367e:	70 33       	cpi	r23, 0x30	; 48
    3680:	11 f4       	brne	.+4      	; 0x3686 <__ftoa_engine+0x130>
    3682:	8a 95       	dec	r24
    3684:	e6 cf       	rjmp	.-52     	; 0x3652 <__ftoa_engine+0xfc>
    3686:	e8 94       	clt
    3688:	01 50       	subi	r16, 0x01	; 1
    368a:	30 f0       	brcs	.+12     	; 0x3698 <__ftoa_engine+0x142>
    368c:	08 0f       	add	r16, r24
    368e:	0a f4       	brpl	.+2      	; 0x3692 <__ftoa_engine+0x13c>
    3690:	00 27       	eor	r16, r16
    3692:	02 17       	cp	r16, r18
    3694:	08 f4       	brcc	.+2      	; 0x3698 <__ftoa_engine+0x142>
    3696:	20 2f       	mov	r18, r16
    3698:	23 95       	inc	r18
    369a:	02 2f       	mov	r16, r18
    369c:	7a 33       	cpi	r23, 0x3A	; 58
    369e:	28 f0       	brcs	.+10     	; 0x36aa <__ftoa_engine+0x154>
    36a0:	79 e3       	ldi	r23, 0x39	; 57
    36a2:	7d 93       	st	X+, r23
    36a4:	2a 95       	dec	r18
    36a6:	e9 f7       	brne	.-6      	; 0x36a2 <__ftoa_engine+0x14c>
    36a8:	10 c0       	rjmp	.+32     	; 0x36ca <__ftoa_engine+0x174>
    36aa:	7d 93       	st	X+, r23
    36ac:	2a 95       	dec	r18
    36ae:	89 f6       	brne	.-94     	; 0x3652 <__ftoa_engine+0xfc>
    36b0:	06 94       	lsr	r0
    36b2:	97 95       	ror	r25
    36b4:	67 95       	ror	r22
    36b6:	37 95       	ror	r19
    36b8:	17 95       	ror	r17
    36ba:	17 94       	ror	r1
    36bc:	e1 18       	sub	r14, r1
    36be:	f1 0a       	sbc	r15, r17
    36c0:	43 0b       	sbc	r20, r19
    36c2:	56 0b       	sbc	r21, r22
    36c4:	c9 0b       	sbc	r28, r25
    36c6:	d0 09       	sbc	r29, r0
    36c8:	98 f0       	brcs	.+38     	; 0x36f0 <__ftoa_engine+0x19a>
    36ca:	23 95       	inc	r18
    36cc:	7e 91       	ld	r23, -X
    36ce:	73 95       	inc	r23
    36d0:	7a 33       	cpi	r23, 0x3A	; 58
    36d2:	08 f0       	brcs	.+2      	; 0x36d6 <__ftoa_engine+0x180>
    36d4:	70 e3       	ldi	r23, 0x30	; 48
    36d6:	7c 93       	st	X, r23
    36d8:	20 13       	cpse	r18, r16
    36da:	b8 f7       	brcc	.-18     	; 0x36ca <__ftoa_engine+0x174>
    36dc:	7e 91       	ld	r23, -X
    36de:	70 61       	ori	r23, 0x10	; 16
    36e0:	7d 93       	st	X+, r23
    36e2:	30 f0       	brcs	.+12     	; 0x36f0 <__ftoa_engine+0x19a>
    36e4:	83 95       	inc	r24
    36e6:	71 e3       	ldi	r23, 0x31	; 49
    36e8:	7d 93       	st	X+, r23
    36ea:	70 e3       	ldi	r23, 0x30	; 48
    36ec:	2a 95       	dec	r18
    36ee:	e1 f7       	brne	.-8      	; 0x36e8 <__ftoa_engine+0x192>
    36f0:	11 24       	eor	r1, r1
    36f2:	ef 90       	pop	r14
    36f4:	ff 90       	pop	r15
    36f6:	0f 91       	pop	r16
    36f8:	1f 91       	pop	r17
    36fa:	cf 91       	pop	r28
    36fc:	df 91       	pop	r29
    36fe:	99 27       	eor	r25, r25
    3700:	87 fd       	sbrc	r24, 7
    3702:	90 95       	com	r25
    3704:	08 95       	ret

00003706 <strnlen_P>:
    3706:	fc 01       	movw	r30, r24
    3708:	05 90       	lpm	r0, Z+
    370a:	61 50       	subi	r22, 0x01	; 1
    370c:	70 40       	sbci	r23, 0x00	; 0
    370e:	01 10       	cpse	r0, r1
    3710:	d8 f7       	brcc	.-10     	; 0x3708 <strnlen_P+0x2>
    3712:	80 95       	com	r24
    3714:	90 95       	com	r25
    3716:	8e 0f       	add	r24, r30
    3718:	9f 1f       	adc	r25, r31
    371a:	08 95       	ret

0000371c <strnlen>:
    371c:	fc 01       	movw	r30, r24
    371e:	61 50       	subi	r22, 0x01	; 1
    3720:	70 40       	sbci	r23, 0x00	; 0
    3722:	01 90       	ld	r0, Z+
    3724:	01 10       	cpse	r0, r1
    3726:	d8 f7       	brcc	.-10     	; 0x371e <strnlen+0x2>
    3728:	80 95       	com	r24
    372a:	90 95       	com	r25
    372c:	8e 0f       	add	r24, r30
    372e:	9f 1f       	adc	r25, r31
    3730:	08 95       	ret

00003732 <itoa>:
    3732:	45 32       	cpi	r20, 0x25	; 37
    3734:	51 05       	cpc	r21, r1
    3736:	20 f4       	brcc	.+8      	; 0x3740 <itoa+0xe>
    3738:	42 30       	cpi	r20, 0x02	; 2
    373a:	10 f0       	brcs	.+4      	; 0x3740 <itoa+0xe>
    373c:	0c 94 a4 1b 	jmp	0x3748	; 0x3748 <__itoa_ncheck>
    3740:	fb 01       	movw	r30, r22
    3742:	10 82       	st	Z, r1
    3744:	cb 01       	movw	r24, r22
    3746:	08 95       	ret

00003748 <__itoa_ncheck>:
    3748:	bb 27       	eor	r27, r27
    374a:	4a 30       	cpi	r20, 0x0A	; 10
    374c:	31 f4       	brne	.+12     	; 0x375a <__itoa_ncheck+0x12>
    374e:	99 23       	and	r25, r25
    3750:	22 f4       	brpl	.+8      	; 0x375a <__itoa_ncheck+0x12>
    3752:	bd e2       	ldi	r27, 0x2D	; 45
    3754:	90 95       	com	r25
    3756:	81 95       	neg	r24
    3758:	9f 4f       	sbci	r25, 0xFF	; 255
    375a:	0c 94 dd 1b 	jmp	0x37ba	; 0x37ba <__utoa_common>

0000375e <ultoa>:
    375e:	25 32       	cpi	r18, 0x25	; 37
    3760:	31 05       	cpc	r19, r1
    3762:	20 f4       	brcc	.+8      	; 0x376c <ultoa+0xe>
    3764:	22 30       	cpi	r18, 0x02	; 2
    3766:	10 f0       	brcs	.+4      	; 0x376c <ultoa+0xe>
    3768:	0c 94 ba 1b 	jmp	0x3774	; 0x3774 <__ultoa_ncheck>
    376c:	fa 01       	movw	r30, r20
    376e:	10 82       	st	Z, r1
    3770:	ca 01       	movw	r24, r20
    3772:	08 95       	ret

00003774 <__ultoa_ncheck>:
    3774:	bb 27       	eor	r27, r27

00003776 <__ultoa_common>:
    3776:	fa 01       	movw	r30, r20
    3778:	a6 2f       	mov	r26, r22
    377a:	62 17       	cp	r22, r18
    377c:	71 05       	cpc	r23, r1
    377e:	81 05       	cpc	r24, r1
    3780:	91 05       	cpc	r25, r1
    3782:	33 0b       	sbc	r19, r19
    3784:	30 fb       	bst	r19, 0
    3786:	66 f0       	brts	.+24     	; 0x37a0 <__ultoa_common+0x2a>
    3788:	aa 27       	eor	r26, r26
    378a:	66 0f       	add	r22, r22
    378c:	77 1f       	adc	r23, r23
    378e:	88 1f       	adc	r24, r24
    3790:	99 1f       	adc	r25, r25
    3792:	aa 1f       	adc	r26, r26
    3794:	a2 17       	cp	r26, r18
    3796:	10 f0       	brcs	.+4      	; 0x379c <__ultoa_common+0x26>
    3798:	a2 1b       	sub	r26, r18
    379a:	63 95       	inc	r22
    379c:	38 50       	subi	r19, 0x08	; 8
    379e:	a9 f7       	brne	.-22     	; 0x378a <__ultoa_common+0x14>
    37a0:	a0 5d       	subi	r26, 0xD0	; 208
    37a2:	aa 33       	cpi	r26, 0x3A	; 58
    37a4:	08 f0       	brcs	.+2      	; 0x37a8 <__ultoa_common+0x32>
    37a6:	a9 5d       	subi	r26, 0xD9	; 217
    37a8:	a1 93       	st	Z+, r26
    37aa:	36 f7       	brtc	.-52     	; 0x3778 <__ultoa_common+0x2>
    37ac:	b1 11       	cpse	r27, r1
    37ae:	b1 93       	st	Z+, r27
    37b0:	10 82       	st	Z, r1
    37b2:	ca 01       	movw	r24, r20
    37b4:	0c 94 af 1c 	jmp	0x395e	; 0x395e <strrev>

000037b8 <__utoa_ncheck>:
    37b8:	bb 27       	eor	r27, r27

000037ba <__utoa_common>:
    37ba:	fb 01       	movw	r30, r22
    37bc:	55 27       	eor	r21, r21
    37be:	aa 27       	eor	r26, r26
    37c0:	88 0f       	add	r24, r24
    37c2:	99 1f       	adc	r25, r25
    37c4:	aa 1f       	adc	r26, r26
    37c6:	a4 17       	cp	r26, r20
    37c8:	10 f0       	brcs	.+4      	; 0x37ce <__utoa_common+0x14>
    37ca:	a4 1b       	sub	r26, r20
    37cc:	83 95       	inc	r24
    37ce:	50 51       	subi	r21, 0x10	; 16
    37d0:	b9 f7       	brne	.-18     	; 0x37c0 <__utoa_common+0x6>
    37d2:	a0 5d       	subi	r26, 0xD0	; 208
    37d4:	aa 33       	cpi	r26, 0x3A	; 58
    37d6:	08 f0       	brcs	.+2      	; 0x37da <__utoa_common+0x20>
    37d8:	a9 5d       	subi	r26, 0xD9	; 217
    37da:	a1 93       	st	Z+, r26
    37dc:	00 97       	sbiw	r24, 0x00	; 0
    37de:	79 f7       	brne	.-34     	; 0x37be <__utoa_common+0x4>
    37e0:	b1 11       	cpse	r27, r1
    37e2:	b1 93       	st	Z+, r27
    37e4:	11 92       	st	Z+, r1
    37e6:	cb 01       	movw	r24, r22
    37e8:	0c 94 af 1c 	jmp	0x395e	; 0x395e <strrev>

000037ec <fputc>:
    37ec:	0f 93       	push	r16
    37ee:	1f 93       	push	r17
    37f0:	cf 93       	push	r28
    37f2:	df 93       	push	r29
    37f4:	fb 01       	movw	r30, r22
    37f6:	23 81       	ldd	r18, Z+3	; 0x03
    37f8:	21 fd       	sbrc	r18, 1
    37fa:	03 c0       	rjmp	.+6      	; 0x3802 <fputc+0x16>
    37fc:	8f ef       	ldi	r24, 0xFF	; 255
    37fe:	9f ef       	ldi	r25, 0xFF	; 255
    3800:	28 c0       	rjmp	.+80     	; 0x3852 <fputc+0x66>
    3802:	22 ff       	sbrs	r18, 2
    3804:	16 c0       	rjmp	.+44     	; 0x3832 <fputc+0x46>
    3806:	46 81       	ldd	r20, Z+6	; 0x06
    3808:	57 81       	ldd	r21, Z+7	; 0x07
    380a:	24 81       	ldd	r18, Z+4	; 0x04
    380c:	35 81       	ldd	r19, Z+5	; 0x05
    380e:	42 17       	cp	r20, r18
    3810:	53 07       	cpc	r21, r19
    3812:	44 f4       	brge	.+16     	; 0x3824 <fputc+0x38>
    3814:	a0 81       	ld	r26, Z
    3816:	b1 81       	ldd	r27, Z+1	; 0x01
    3818:	9d 01       	movw	r18, r26
    381a:	2f 5f       	subi	r18, 0xFF	; 255
    381c:	3f 4f       	sbci	r19, 0xFF	; 255
    381e:	31 83       	std	Z+1, r19	; 0x01
    3820:	20 83       	st	Z, r18
    3822:	8c 93       	st	X, r24
    3824:	26 81       	ldd	r18, Z+6	; 0x06
    3826:	37 81       	ldd	r19, Z+7	; 0x07
    3828:	2f 5f       	subi	r18, 0xFF	; 255
    382a:	3f 4f       	sbci	r19, 0xFF	; 255
    382c:	37 83       	std	Z+7, r19	; 0x07
    382e:	26 83       	std	Z+6, r18	; 0x06
    3830:	10 c0       	rjmp	.+32     	; 0x3852 <fputc+0x66>
    3832:	eb 01       	movw	r28, r22
    3834:	09 2f       	mov	r16, r25
    3836:	18 2f       	mov	r17, r24
    3838:	00 84       	ldd	r0, Z+8	; 0x08
    383a:	f1 85       	ldd	r31, Z+9	; 0x09
    383c:	e0 2d       	mov	r30, r0
    383e:	09 95       	icall
    3840:	89 2b       	or	r24, r25
    3842:	e1 f6       	brne	.-72     	; 0x37fc <fputc+0x10>
    3844:	8e 81       	ldd	r24, Y+6	; 0x06
    3846:	9f 81       	ldd	r25, Y+7	; 0x07
    3848:	01 96       	adiw	r24, 0x01	; 1
    384a:	9f 83       	std	Y+7, r25	; 0x07
    384c:	8e 83       	std	Y+6, r24	; 0x06
    384e:	81 2f       	mov	r24, r17
    3850:	90 2f       	mov	r25, r16
    3852:	df 91       	pop	r29
    3854:	cf 91       	pop	r28
    3856:	1f 91       	pop	r17
    3858:	0f 91       	pop	r16
    385a:	08 95       	ret

0000385c <sprintf>:
    385c:	ae e0       	ldi	r26, 0x0E	; 14
    385e:	b0 e0       	ldi	r27, 0x00	; 0
    3860:	e4 e3       	ldi	r30, 0x34	; 52
    3862:	fc e1       	ldi	r31, 0x1C	; 28
    3864:	0c 94 46 19 	jmp	0x328c	; 0x328c <__prologue_saves__+0x1c>
    3868:	0d 89       	ldd	r16, Y+21	; 0x15
    386a:	1e 89       	ldd	r17, Y+22	; 0x16
    386c:	86 e0       	ldi	r24, 0x06	; 6
    386e:	8c 83       	std	Y+4, r24	; 0x04
    3870:	1a 83       	std	Y+2, r17	; 0x02
    3872:	09 83       	std	Y+1, r16	; 0x01
    3874:	8f ef       	ldi	r24, 0xFF	; 255
    3876:	9f e7       	ldi	r25, 0x7F	; 127
    3878:	9e 83       	std	Y+6, r25	; 0x06
    387a:	8d 83       	std	Y+5, r24	; 0x05
    387c:	ae 01       	movw	r20, r28
    387e:	47 5e       	subi	r20, 0xE7	; 231
    3880:	5f 4f       	sbci	r21, 0xFF	; 255
    3882:	6f 89       	ldd	r22, Y+23	; 0x17
    3884:	78 8d       	ldd	r23, Y+24	; 0x18
    3886:	ce 01       	movw	r24, r28
    3888:	01 96       	adiw	r24, 0x01	; 1
    388a:	0e 94 4f 15 	call	0x2a9e	; 0x2a9e <vfprintf>
    388e:	2f 81       	ldd	r18, Y+7	; 0x07
    3890:	38 85       	ldd	r19, Y+8	; 0x08
    3892:	f8 01       	movw	r30, r16
    3894:	e2 0f       	add	r30, r18
    3896:	f3 1f       	adc	r31, r19
    3898:	10 82       	st	Z, r1
    389a:	2e 96       	adiw	r28, 0x0e	; 14
    389c:	e4 e0       	ldi	r30, 0x04	; 4
    389e:	0c 94 62 19 	jmp	0x32c4	; 0x32c4 <__epilogue_restores__+0x1c>

000038a2 <__ultoa_invert>:
    38a2:	fa 01       	movw	r30, r20
    38a4:	aa 27       	eor	r26, r26
    38a6:	28 30       	cpi	r18, 0x08	; 8
    38a8:	51 f1       	breq	.+84     	; 0x38fe <__ultoa_invert+0x5c>
    38aa:	20 31       	cpi	r18, 0x10	; 16
    38ac:	81 f1       	breq	.+96     	; 0x390e <__ultoa_invert+0x6c>
    38ae:	e8 94       	clt
    38b0:	6f 93       	push	r22
    38b2:	6e 7f       	andi	r22, 0xFE	; 254
    38b4:	6e 5f       	subi	r22, 0xFE	; 254
    38b6:	7f 4f       	sbci	r23, 0xFF	; 255
    38b8:	8f 4f       	sbci	r24, 0xFF	; 255
    38ba:	9f 4f       	sbci	r25, 0xFF	; 255
    38bc:	af 4f       	sbci	r26, 0xFF	; 255
    38be:	b1 e0       	ldi	r27, 0x01	; 1
    38c0:	3e d0       	rcall	.+124    	; 0x393e <__ultoa_invert+0x9c>
    38c2:	b4 e0       	ldi	r27, 0x04	; 4
    38c4:	3c d0       	rcall	.+120    	; 0x393e <__ultoa_invert+0x9c>
    38c6:	67 0f       	add	r22, r23
    38c8:	78 1f       	adc	r23, r24
    38ca:	89 1f       	adc	r24, r25
    38cc:	9a 1f       	adc	r25, r26
    38ce:	a1 1d       	adc	r26, r1
    38d0:	68 0f       	add	r22, r24
    38d2:	79 1f       	adc	r23, r25
    38d4:	8a 1f       	adc	r24, r26
    38d6:	91 1d       	adc	r25, r1
    38d8:	a1 1d       	adc	r26, r1
    38da:	6a 0f       	add	r22, r26
    38dc:	71 1d       	adc	r23, r1
    38de:	81 1d       	adc	r24, r1
    38e0:	91 1d       	adc	r25, r1
    38e2:	a1 1d       	adc	r26, r1
    38e4:	20 d0       	rcall	.+64     	; 0x3926 <__ultoa_invert+0x84>
    38e6:	09 f4       	brne	.+2      	; 0x38ea <__ultoa_invert+0x48>
    38e8:	68 94       	set
    38ea:	3f 91       	pop	r19
    38ec:	2a e0       	ldi	r18, 0x0A	; 10
    38ee:	26 9f       	mul	r18, r22
    38f0:	11 24       	eor	r1, r1
    38f2:	30 19       	sub	r19, r0
    38f4:	30 5d       	subi	r19, 0xD0	; 208
    38f6:	31 93       	st	Z+, r19
    38f8:	de f6       	brtc	.-74     	; 0x38b0 <__ultoa_invert+0xe>
    38fa:	cf 01       	movw	r24, r30
    38fc:	08 95       	ret
    38fe:	46 2f       	mov	r20, r22
    3900:	47 70       	andi	r20, 0x07	; 7
    3902:	40 5d       	subi	r20, 0xD0	; 208
    3904:	41 93       	st	Z+, r20
    3906:	b3 e0       	ldi	r27, 0x03	; 3
    3908:	0f d0       	rcall	.+30     	; 0x3928 <__ultoa_invert+0x86>
    390a:	c9 f7       	brne	.-14     	; 0x38fe <__ultoa_invert+0x5c>
    390c:	f6 cf       	rjmp	.-20     	; 0x38fa <__ultoa_invert+0x58>
    390e:	46 2f       	mov	r20, r22
    3910:	4f 70       	andi	r20, 0x0F	; 15
    3912:	40 5d       	subi	r20, 0xD0	; 208
    3914:	4a 33       	cpi	r20, 0x3A	; 58
    3916:	18 f0       	brcs	.+6      	; 0x391e <__ultoa_invert+0x7c>
    3918:	49 5d       	subi	r20, 0xD9	; 217
    391a:	31 fd       	sbrc	r19, 1
    391c:	40 52       	subi	r20, 0x20	; 32
    391e:	41 93       	st	Z+, r20
    3920:	02 d0       	rcall	.+4      	; 0x3926 <__ultoa_invert+0x84>
    3922:	a9 f7       	brne	.-22     	; 0x390e <__ultoa_invert+0x6c>
    3924:	ea cf       	rjmp	.-44     	; 0x38fa <__ultoa_invert+0x58>
    3926:	b4 e0       	ldi	r27, 0x04	; 4
    3928:	a6 95       	lsr	r26
    392a:	97 95       	ror	r25
    392c:	87 95       	ror	r24
    392e:	77 95       	ror	r23
    3930:	67 95       	ror	r22
    3932:	ba 95       	dec	r27
    3934:	c9 f7       	brne	.-14     	; 0x3928 <__ultoa_invert+0x86>
    3936:	00 97       	sbiw	r24, 0x00	; 0
    3938:	61 05       	cpc	r22, r1
    393a:	71 05       	cpc	r23, r1
    393c:	08 95       	ret
    393e:	9b 01       	movw	r18, r22
    3940:	ac 01       	movw	r20, r24
    3942:	0a 2e       	mov	r0, r26
    3944:	06 94       	lsr	r0
    3946:	57 95       	ror	r21
    3948:	47 95       	ror	r20
    394a:	37 95       	ror	r19
    394c:	27 95       	ror	r18
    394e:	ba 95       	dec	r27
    3950:	c9 f7       	brne	.-14     	; 0x3944 <__ultoa_invert+0xa2>
    3952:	62 0f       	add	r22, r18
    3954:	73 1f       	adc	r23, r19
    3956:	84 1f       	adc	r24, r20
    3958:	95 1f       	adc	r25, r21
    395a:	a0 1d       	adc	r26, r0
    395c:	08 95       	ret

0000395e <strrev>:
    395e:	dc 01       	movw	r26, r24
    3960:	fc 01       	movw	r30, r24
    3962:	67 2f       	mov	r22, r23
    3964:	71 91       	ld	r23, Z+
    3966:	77 23       	and	r23, r23
    3968:	e1 f7       	brne	.-8      	; 0x3962 <strrev+0x4>
    396a:	32 97       	sbiw	r30, 0x02	; 2
    396c:	04 c0       	rjmp	.+8      	; 0x3976 <strrev+0x18>
    396e:	7c 91       	ld	r23, X
    3970:	6d 93       	st	X+, r22
    3972:	70 83       	st	Z, r23
    3974:	62 91       	ld	r22, -Z
    3976:	ae 17       	cp	r26, r30
    3978:	bf 07       	cpc	r27, r31
    397a:	c8 f3       	brcs	.-14     	; 0x396e <strrev+0x10>
    397c:	08 95       	ret

0000397e <eeprom_read_byte>:
    397e:	f9 99       	sbic	0x1f, 1	; 31
    3980:	fe cf       	rjmp	.-4      	; 0x397e <eeprom_read_byte>
    3982:	92 bd       	out	0x22, r25	; 34
    3984:	81 bd       	out	0x21, r24	; 33
    3986:	f8 9a       	sbi	0x1f, 0	; 31
    3988:	99 27       	eor	r25, r25
    398a:	80 b5       	in	r24, 0x20	; 32
    398c:	08 95       	ret

0000398e <eeprom_write_byte>:
    398e:	26 2f       	mov	r18, r22

00003990 <eeprom_write_r18>:
    3990:	f9 99       	sbic	0x1f, 1	; 31
    3992:	fe cf       	rjmp	.-4      	; 0x3990 <eeprom_write_r18>
    3994:	1f ba       	out	0x1f, r1	; 31
    3996:	92 bd       	out	0x22, r25	; 34
    3998:	81 bd       	out	0x21, r24	; 33
    399a:	20 bd       	out	0x20, r18	; 32
    399c:	0f b6       	in	r0, 0x3f	; 63
    399e:	f8 94       	cli
    39a0:	fa 9a       	sbi	0x1f, 2	; 31
    39a2:	f9 9a       	sbi	0x1f, 1	; 31
    39a4:	0f be       	out	0x3f, r0	; 63
    39a6:	01 96       	adiw	r24, 0x01	; 1
    39a8:	08 95       	ret

000039aa <__do_global_dtors>:
    39aa:	10 e0       	ldi	r17, 0x00	; 0
    39ac:	cb ee       	ldi	r28, 0xEB	; 235
    39ae:	d0 e0       	ldi	r29, 0x00	; 0
    39b0:	04 c0       	rjmp	.+8      	; 0x39ba <__do_global_dtors+0x10>
    39b2:	fe 01       	movw	r30, r28
    39b4:	0e 94 20 19 	call	0x3240	; 0x3240 <__tablejump2__>
    39b8:	21 96       	adiw	r28, 0x01	; 1
    39ba:	cc 3e       	cpi	r28, 0xEC	; 236
    39bc:	d1 07       	cpc	r29, r17
    39be:	c9 f7       	brne	.-14     	; 0x39b2 <__do_global_dtors+0x8>
    39c0:	f8 94       	cli

000039c2 <__stop_program>:
    39c2:	ff cf       	rjmp	.-2      	; 0x39c2 <__stop_program>
